	.file	"uHeapLmmm.cc"
	.text
.Ltext0:
	.section	.text._ZnwmPv,"axG",@progbits,_ZnwmPv,comdat
	.weak	_ZnwmPv
	.type	_ZnwmPv, @function
_ZnwmPv:
.LFB51:
	.file 1 "/usr/include/c++/11/new"
	.loc 1 175 2
	.cfi_startproc
	endbr64
	pushq	%rbp
	.cfi_def_cfa_offset 16
	.cfi_offset 6, -16
	movq	%rsp, %rbp
	.cfi_def_cfa_register 6
	movq	%rdi, -8(%rbp)
	movq	%rsi, -16(%rbp)
	.loc 1 175 11
	movq	-16(%rbp), %rax
	.loc 1 175 17
	popq	%rbp
	.cfi_def_cfa 7, 8
	ret
	.cfi_endproc
.LFE51:
	.size	_ZnwmPv, .-_ZnwmPv
	.section	.text._ZN9uSpinLockC2Ev,"axG",@progbits,_ZN9uSpinLockC5Ev,comdat
	.align 2
	.weak	_ZN9uSpinLockC2Ev
	.type	_ZN9uSpinLockC2Ev, @function
_ZN9uSpinLockC2Ev:
.LFB272:
	.file 2 "./uC++.h"
	.loc 2 735 2
	.cfi_startproc
	endbr64
	pushq	%rbp
	.cfi_def_cfa_offset 16
	.cfi_offset 6, -16
	movq	%rsp, %rbp
	.cfi_def_cfa_register 6
	movq	%rdi, -8(%rbp)
.LBB646:
	.loc 2 739 8
	movq	-8(%rbp), %rax
	movl	$0, (%rax)
.LBE646:
	.loc 2 740 2
	nop
	popq	%rbp
	.cfi_def_cfa 7, 8
	ret
	.cfi_endproc
.LFE272:
	.size	_ZN9uSpinLockC2Ev, .-_ZN9uSpinLockC2Ev
	.weak	_ZN9uSpinLockC1Ev
	.set	_ZN9uSpinLockC1Ev,_ZN9uSpinLockC2Ev
	.section	.text._ZN3UPP12uHeapControl9traceHeapEv,"axG",@progbits,_ZN3UPP12uHeapControl9traceHeapEv,comdat
	.weak	_ZN3UPP12uHeapControl9traceHeapEv
	.type	_ZN3UPP12uHeapControl9traceHeapEv, @function
_ZN3UPP12uHeapControl9traceHeapEv:
.LFB2786:
	.loc 2 3117 14
	.cfi_startproc
	endbr64
	pushq	%rbp
	.cfi_def_cfa_offset 16
	.cfi_offset 6, -16
	movq	%rsp, %rbp
	.cfi_def_cfa_register 6
	.loc 2 3118 9
	movzbl	_ZN3UPP12uHeapControl10traceHeap_E(%rip), %eax
	.loc 2 3119 2
	popq	%rbp
	.cfi_def_cfa 7, 8
	ret
	.cfi_endproc
.LFE2786:
	.size	_ZN3UPP12uHeapControl9traceHeapEv, .-_ZN3UPP12uHeapControl9traceHeapEv
	.local	_ZL6lookup
	.comm	_ZL6lookup,65552,32
	.local	_ZL18heapMasterBootFlag
	.comm	_ZL18heapMasterBootFlag,1,1
	.local	_ZL10heapMaster
	.comm	_ZL10heapMaster,96,32
	.section	.rodata
	.align 32
	.type	_ZL11bucketSizes, @object
	.size	_ZL11bucketSizes, 364
_ZL11bucketSizes:
	.long	32
	.long	48
	.long	64
	.long	80
	.long	112
	.long	128
	.long	144
	.long	160
	.long	192
	.long	224
	.long	272
	.long	320
	.long	384
	.long	448
	.long	528
	.long	640
	.long	768
	.long	896
	.long	1040
	.long	1536
	.long	2064
	.long	2560
	.long	3072
	.long	3584
	.long	4112
	.long	6144
	.long	8208
	.long	9216
	.long	10240
	.long	11264
	.long	12288
	.long	13312
	.long	14336
	.long	15360
	.long	16400
	.long	18432
	.long	20480
	.long	22528
	.long	24576
	.long	26624
	.long	28672
	.long	30720
	.long	32784
	.long	36864
	.long	40960
	.long	45056
	.long	49152
	.long	53248
	.long	57344
	.long	61440
	.long	65552
	.long	73728
	.long	81920
	.long	90112
	.long	98304
	.long	106496
	.long	114688
	.long	122880
	.long	131088
	.long	147456
	.long	163840
	.long	180224
	.long	196608
	.long	212992
	.long	229376
	.long	245760
	.long	262160
	.long	294912
	.long	327680
	.long	360448
	.long	393216
	.long	425984
	.long	458752
	.long	491520
	.long	524304
	.long	655360
	.long	786432
	.long	917504
	.long	1048592
	.long	1179648
	.long	1310720
	.long	1441792
	.long	1572864
	.long	1703936
	.long	1835008
	.long	1966080
	.long	2097168
	.long	2621440
	.long	3145728
	.long	3670016
	.long	4194320
	.local	_ZL4PAD1
	.comm	_ZL4PAD1,8,64
	.local	_ZL11heapManager
	.comm	_ZL11heapManager,8,64
	.local	_ZL4PAD2
	.comm	_ZL4PAD2,8,64
	.align 8
.LC0:
	.string	"/u0/usystem/software/u++-7.0.0/src/kernel/uHeapLmmm.cc:312: Assertion \"bucketSizes[0] == (16 + sizeof(Heap::Storage))\" failed.\n"
	.align 8
.LC1:
	.string	"./uAlign.h:56: Assertion \"uPow2( align )\" failed.\n"
	.align 8
.LC2:
	.string	"./uAlign.h:47: Assertion \"uPow2( align )\" failed.\n"
	.align 8
.LC3:
	.string	"/u0/usystem/software/u++-7.0.0/src/kernel/uHeapLmmm.cc:328: Assertion \"(heapMaster.mmapStart >= heapMaster.pageSize) && (bucketSizes[Heap::NoBucketSizes - 1] >= heapMaster.mmapStart)\" failed.\n"
	.align 8
.LC4:
	.string	"/u0/usystem/software/u++-7.0.0/src/kernel/uHeapLmmm.cc:329: Assertion \"heapMaster.maxBucketsUsed < Heap::NoBucketSizes\" failed.\n"
	.align 8
.LC5:
	.string	"/u0/usystem/software/u++-7.0.0/src/kernel/uHeapLmmm.cc:330: Assertion \"heapMaster.mmapStart <= bucketSizes[heapMaster.maxBucketsUsed]\" failed.\n"
	.align 8
.LC6:
	.string	"/u0/usystem/software/u++-7.0.0/src/kernel/uHeapLmmm.cc:350: Assertion \"i <= bucketSizes[idx]\" failed.\n"
	.align 8
.LC7:
	.string	"/u0/usystem/software/u++-7.0.0/src/kernel/uHeapLmmm.cc:351: Assertion \"(i <= 32 && idx == 0) || (i > bucketSizes[idx - 1])\" failed.\n"
	.text
	.align 2
	.type	_ZN12_GLOBAL__N_110HeapMaster14heapMasterCtorEv, @function
_ZN12_GLOBAL__N_110HeapMaster14heapMasterCtorEv:
.LFB2851:
	.file 3 "/u0/usystem/software/u++-7.0.0/src/kernel/uHeapLmmm.cc"
	.loc 3 309 40
	.cfi_startproc
	endbr64
	pushq	%rbp
	.cfi_def_cfa_offset 16
	.cfi_offset 6, -16
	movq	%rsp, %rbp
	.cfi_def_cfa_register 6
	subq	$144, %rsp
.LBB647:
	.loc 3 312 18
	movl	$32, %eax
	.loc 3 312 2
	cmpl	$32, %eax
	je	.L7
.LBB648:
	.loc 3 312 70 discriminator 1
	movl	$127, %edx
	leaq	.LC0(%rip), %rax
	movq	%rax, %rsi
	movl	$2, %edi
	call	write@PLT
	.loc 3 312 59 discriminator 1
	movl	%eax, -112(%rbp)
	.loc 3 312 399 discriminator 1
	call	abort@PLT
.L7:
.LBE648:
.LBE647:
	.loc 3 314 34
	movl	$30, %edi
	call	sysconf@PLT
	.loc 3 314 24
	movq	%rax, 32+_ZL10heapMaster(%rip)
	.loc 3 316 30
	leaq	_ZL10heapMaster(%rip), %rax
	movq	%rax, %rdi
	call	_ZN7uNoCtorI9uSpinLockLb0EE4ctorEv
	.loc 3 317 30
	leaq	4+_ZL10heapMaster(%rip), %rax
	movq	%rax, %rdi
	call	_ZN7uNoCtorI9uSpinLockLb0EE4ctorEv
	.loc 3 319 31
	movl	$0, %edi
	call	sbrk@PLT
	movq	%rax, -96(%rbp)
	.loc 3 320 77
	movq	-96(%rbp), %rax
	movq	%rax, -48(%rbp)
	movq	$16, -40(%rbp)
	movq	-40(%rbp), %rax
	movq	%rax, -32(%rbp)
.LBB649:
.LBB650:
.LBB651:
.LBB652:
.LBB653:
	.file 4 "./uAlign.h"
	.loc 4 40 27
	movq	-32(%rbp), %rax
	subq	$1, %rax
	.loc 4 40 17
	andq	-32(%rbp), %rax
	.loc 4 40 38
	testq	%rax, %rax
	sete	%al
.LBE653:
.LBE652:
	.loc 4 56 7
	xorl	$1, %eax
	.loc 4 56 2
	testb	%al, %al
	je	.L9
.LBB654:
	.loc 4 56 95
	movl	$50, %edx
	leaq	.LC1(%rip), %rax
	movq	%rax, %rsi
	movl	$2, %edi
	call	write@PLT
	.loc 4 56 84
	movl	%eax, -104(%rbp)
	.loc 4 56 173
	call	abort@PLT
.L9:
.LBE654:
.LBE651:
	.loc 4 58 18
	movq	-48(%rbp), %rax
	negq	%rax
	movq	%rax, -24(%rbp)
	movq	-40(%rbp), %rax
	movq	%rax, -16(%rbp)
	movq	-16(%rbp), %rax
	movq	%rax, -8(%rbp)
.LBB655:
.LBB656:
.LBB657:
.LBB658:
.LBB659:
	.loc 4 40 27
	movq	-8(%rbp), %rax
	subq	$1, %rax
	.loc 4 40 17
	andq	-8(%rbp), %rax
	.loc 4 40 38
	testq	%rax, %rax
	sete	%al
.LBE659:
.LBE658:
	.loc 4 47 7
	xorl	$1, %eax
	.loc 4 47 2
	testb	%al, %al
	je	.L11
.LBB660:
	.loc 4 47 95
	movl	$50, %edx
	leaq	.LC2(%rip), %rax
	movq	%rax, %rsi
	movl	$2, %edi
	call	write@PLT
	.loc 4 47 84
	movl	%eax, -100(%rbp)
	.loc 4 47 173
	call	abort@PLT
.L11:
.LBE660:
.LBE657:
	.loc 4 49 17
	movq	-16(%rbp), %rax
	negq	%rax
	.loc 4 49 19
	andq	-24(%rbp), %rax
.LBE656:
.LBE655:
	.loc 4 58 36
	negq	%rax
.LBE650:
.LBE649:
	.loc 3 320 55
	subq	-96(%rbp), %rax
	movq	%rax, %rdi
	call	sbrk@PLT
	.loc 3 320 48
	movq	%rax, 16+_ZL10heapMaster(%rip)
	.loc 3 320 40
	movq	16+_ZL10heapMaster(%rip), %rax
	.loc 3 320 25
	movq	%rax, 8+_ZL10heapMaster(%rip)
	.loc 3 321 29
	movq	$0, 24+_ZL10heapMaster(%rip)
	.loc 3 322 45
	call	malloc_expansion
	.loc 3 322 26
	movq	%rax, 40+_ZL10heapMaster(%rip)
	.loc 3 323 45
	call	malloc_mmap_start
	.loc 3 323 25
	movq	%rax, 48+_ZL10heapMaster(%rip)
	.loc 3 326 56
	movq	48+_ZL10heapMaster(%rip), %rax
	movl	%eax, -108(%rbp)
	leaq	_ZL11bucketSizes(%rip), %rax
	movq	%rax, -88(%rbp)
	movq	$91, -80(%rbp)
.LBB661:
.LBB662:
	.loc 3 287 9
	movq	$0, -72(%rbp)
	.loc 3 287 21
	movq	-80(%rbp), %rax
	movq	%rax, -64(%rbp)
	.loc 3 288 2
	jmp	.L14
.L16:
	.loc 3 289 10
	movq	-72(%rbp), %rdx
	movq	-64(%rbp), %rax
	addq	%rdx, %rax
	.loc 3 289 4
	shrq	%rax
	movq	%rax, -56(%rbp)
	.loc 3 290 37
	movq	-56(%rbp), %rax
	leaq	0(,%rax,4), %rdx
	movq	-88(%rbp), %rax
	addq	%rdx, %rax
	.loc 3 290 7
	movl	(%rax), %eax
	.loc 3 290 2
	cmpl	%eax, -108(%rbp)
	jbe	.L15
	.loc 3 291 4
	movq	-56(%rbp), %rax
	addq	$1, %rax
	movq	%rax, -72(%rbp)
	jmp	.L14
.L15:
	.loc 3 293 4
	movq	-56(%rbp), %rax
	movq	%rax, -64(%rbp)
.L14:
	.loc 3 288 12
	movq	-72(%rbp), %rax
	cmpq	-64(%rbp), %rax
	jb	.L16
	.loc 3 296 9
	movq	-72(%rbp), %rax
.LBE662:
.LBE661:
	.loc 3 326 30
	movl	%eax, 56+_ZL10heapMaster(%rip)
.LBB663:
	.loc 3 328 17
	movq	48+_ZL10heapMaster(%rip), %rdx
	.loc 3 328 43
	movq	32+_ZL10heapMaster(%rip), %rax
	.loc 3 328 2
	cmpq	%rax, %rdx
	jb	.L18
	.loc 3 328 99 discriminator 2
	movl	$4194320, %eax
	movl	%eax, %edx
	.loc 3 328 117 discriminator 2
	movq	48+_ZL10heapMaster(%rip), %rax
	.loc 3 328 7 discriminator 2
	cmpq	%rax, %rdx
	jnb	.L19
.L18:
.LBB664:
	.loc 3 328 70 discriminator 3
	movl	$192, %edx
	leaq	.LC3(%rip), %rax
	movq	%rax, %rsi
	movl	$2, %edi
	call	write@PLT
	.loc 3 328 59 discriminator 3
	movl	%eax, -116(%rbp)
	.loc 3 328 529 discriminator 3
	call	abort@PLT
.L19:
.LBE664:
.LBE663:
.LBB665:
	.loc 3 329 15
	movl	56+_ZL10heapMaster(%rip), %eax
	.loc 3 329 2
	cmpl	$90, %eax
	jbe	.L20
.LBB666:
	.loc 3 329 70 discriminator 1
	movl	$128, %edx
	leaq	.LC4(%rip), %rax
	movq	%rax, %rsi
	movl	$2, %edi
	call	write@PLT
	.loc 3 329 59 discriminator 1
	movl	%eax, -120(%rbp)
	.loc 3 329 401 discriminator 1
	call	abort@PLT
.L20:
.LBE666:
.LBE665:
.LBB667:
	.loc 3 330 15
	movq	48+_ZL10heapMaster(%rip), %rax
	.loc 3 330 55
	movl	56+_ZL10heapMaster(%rip), %edx
	.loc 3 330 70
	movl	%edx, %edx
	leaq	0(,%rdx,4), %rcx
	leaq	_ZL11bucketSizes(%rip), %rdx
	movl	(%rcx,%rdx), %edx
	movl	%edx, %edx
	.loc 3 330 2
	cmpq	%rdx, %rax
	jbe	.L21
.LBB668:
	.loc 3 330 70 discriminator 1
	movl	$143, %edx
	leaq	.LC5(%rip), %rax
	movq	%rax, %rsi
	movl	$2, %edi
	call	write@PLT
	.loc 3 330 59 discriminator 1
	movl	%eax, -124(%rbp)
	.loc 3 330 431 discriminator 1
	call	abort@PLT
.L21:
.LBE668:
.LBE667:
	.loc 3 332 32
	movq	$0, 64+_ZL10heapMaster(%rip)
	.loc 3 333 36
	movq	$0, 72+_ZL10heapMaster(%rip)
	.loc 3 335 35
	movq	$0, 80+_ZL10heapMaster(%rip)
	.loc 3 336 38
	movq	$0, 88+_ZL10heapMaster(%rip)
.LBB669:
	.loc 3 347 21
	movl	$0, -140(%rbp)
	.loc 3 347 29
	movl	$0, -136(%rbp)
	.loc 3 347 2
	jmp	.L22
.L27:
.LBB670:
	.loc 3 348 29
	movl	-136(%rbp), %eax
	leaq	0(,%rax,4), %rdx
	leaq	_ZL11bucketSizes(%rip), %rax
	movl	(%rdx,%rax), %eax
	.loc 3 348 2
	cmpl	%eax, -140(%rbp)
	jbe	.L23
	.loc 3 348 37 discriminator 1
	addl	$1, -136(%rbp)
.L23:
	.loc 3 349 15
	movl	-136(%rbp), %eax
	movl	%eax, %ecx
	movl	-140(%rbp), %eax
	leaq	_ZL6lookup(%rip), %rdx
	movb	%cl, (%rax,%rdx)
.LBB671:
	.loc 3 350 25
	movl	-136(%rbp), %eax
	leaq	0(,%rax,4), %rdx
	leaq	_ZL11bucketSizes(%rip), %rax
	movl	(%rdx,%rax), %eax
	.loc 3 350 2
	cmpl	%eax, -140(%rbp)
	jbe	.L24
.LBB672:
	.loc 3 350 70 discriminator 1
	movl	$102, %edx
	leaq	.LC6(%rip), %rax
	movq	%rax, %rsi
	movl	$2, %edi
	call	write@PLT
	.loc 3 350 59 discriminator 1
	movl	%eax, -128(%rbp)
	.loc 3 350 349 discriminator 1
	call	abort@PLT
.L24:
.LBE672:
.LBE671:
.LBB673:
	.loc 3 351 2
	cmpl	$32, -140(%rbp)
	ja	.L25
	.loc 3 351 12 discriminator 2
	cmpl	$0, -136(%rbp)
	je	.L26
.L25:
	.loc 3 351 53 discriminator 3
	movl	-136(%rbp), %eax
	subl	$1, %eax
	.loc 3 351 57 discriminator 3
	movl	%eax, %eax
	leaq	0(,%rax,4), %rdx
	leaq	_ZL11bucketSizes(%rip), %rax
	movl	(%rdx,%rax), %eax
	.loc 3 351 7 discriminator 3
	cmpl	%eax, -140(%rbp)
	ja	.L26
.LBB674:
	.loc 3 351 70 discriminator 4
	movl	$132, %edx
	leaq	.LC7(%rip), %rax
	movq	%rax, %rsi
	movl	$2, %edi
	call	write@PLT
	.loc 3 351 59 discriminator 4
	movl	%eax, -132(%rbp)
	.loc 3 351 409 discriminator 4
	call	abort@PLT
.L26:
.LBE674:
.LBE673:
.LBE670:
	.loc 3 347 59 discriminator 2
	addl	$1, -140(%rbp)
.L22:
	.loc 3 347 41 discriminator 1
	cmpl	$65551, -140(%rbp)
	jbe	.L27
.LBE669:
	.loc 3 355 25
	leaq	_Z8noMemoryv(%rip), %rax
	movq	%rax, %rdi
	call	_ZSt15set_new_handlerPFvvE@PLT
	.loc 3 357 21
	movb	$1, _ZL18heapMasterBootFlag(%rip)
	.loc 3 358 2
	nop
	leave
	.cfi_def_cfa 7, 8
	ret
	.cfi_endproc
.LFE2851:
	.size	_ZN12_GLOBAL__N_110HeapMaster14heapMasterCtorEv, .-_ZN12_GLOBAL__N_110HeapMaster14heapMasterCtorEv
	.section	.rodata
	.align 8
.LC8:
	.string	"insufficient heap memory available to allocate %zd new bytes."
	.align 8
.LC9:
	.string	"attempt to allocate block of heaps of size %zu bytes and mmap failed with errno %d."
	.text
	.align 2
	.type	_ZN12_GLOBAL__N_110HeapMaster7getHeapEv, @function
_ZN12_GLOBAL__N_110HeapMaster7getHeapEv:
.LFB2852:
	.loc 3 363 35
	.cfi_startproc
	endbr64
	pushq	%rbp
	.cfi_def_cfa_offset 16
	.cfi_offset 6, -16
	movq	%rsp, %rbp
	.cfi_def_cfa_register 6
	subq	$32, %rsp
.LBB675:
	.loc 3 365 20
	movq	72+_ZL10heapMaster(%rip), %rax
	.loc 3 365 2
	testq	%rax, %rax
	je	.L29
	.loc 3 366 7
	movq	72+_ZL10heapMaster(%rip), %rax
	movq	%rax, -24(%rbp)
	.loc 3 367 46
	movq	-24(%rbp), %rax
	movq	3664(%rax), %rax
	.loc 3 367 36
	movq	%rax, 72+_ZL10heapMaster(%rip)
	jmp	.L30
.L29:
.LBB676:
	.loc 3 375 34
	movq	88+_ZL10heapMaster(%rip), %rax
	.loc 3 375 72
	movq	80+_ZL10heapMaster(%rip), %rdx
	.loc 3 375 57
	subq	%rdx, %rax
	sarq	$5, %rax
	movq	%rax, %rdx
	movabsq	$3047722933917230267, %rax
	imulq	%rdx, %rax
	.loc 3 375 9
	movq	%rax, -16(%rbp)
.LBB677:
	.loc 3 376 22
	movq	80+_ZL10heapMaster(%rip), %rax
	.loc 3 376 2
	testq	%rax, %rax
	je	.L31
	.loc 3 376 42 discriminator 1
	cmpq	$0, -16(%rbp)
	je	.L32
.L31:
.LBB678:
	.loc 3 378 27
	call	get_nprocs@PLT
	movl	%eax, -28(%rbp)
	.loc 3 379 16
	movl	-28(%rbp), %eax
	cltq
	.loc 3 379 9
	imulq	$3680, %rax, %rax
	movq	%rax, -8(%rbp)
	.loc 3 381 53
	movq	-8(%rbp), %rax
	movl	$0, %r9d
	movl	$-1, %r8d
	movl	$34, %ecx
	movl	$3, %edx
	movq	%rax, %rsi
	movl	$0, %edi
	call	mmap@PLT
	.loc 3 381 35
	movq	%rax, 80+_ZL10heapMaster(%rip)
	.loc 3 382 45
	movq	80+_ZL10heapMaster(%rip), %rax
	.loc 3 382 26
	cmpq	$-1, %rax
	sete	%al
	.loc 3 382 24
	movzbl	%al, %eax
	.loc 3 382 2
	testq	%rax, %rax
	je	.L33
	.loc 3 383 23
	call	__errno_location@PLT
	.loc 3 383 4
	movl	(%rax), %eax
	.loc 3 383 2
	cmpl	$12, %eax
	jne	.L34
	.loc 3 383 10 discriminator 1
	movq	-8(%rbp), %rax
	movq	%rax, %rsi
	leaq	.LC8(%rip), %rax
	movq	%rax, %rdi
	movl	$0, %eax
	call	_Z5abortPKcz@PLT
.L34:
	.loc 3 385 23
	call	__errno_location@PLT
	.loc 3 385 8
	movl	(%rax), %edx
	movq	-8(%rbp), %rax
	movq	%rax, %rsi
	leaq	.LC9(%rip), %rax
	movq	%rax, %rdi
	movl	$0, %eax
	call	_Z5abortPKcz@PLT
.L33:
	.loc 3 387 55
	movq	80+_ZL10heapMaster(%rip), %rdx
	.loc 3 387 77
	movl	-28(%rbp), %eax
	cltq
	.loc 3 387 85
	imulq	$3680, %rax, %rax
	.loc 3 387 40
	addq	%rdx, %rax
	.loc 3 387 38
	movq	%rax, 88+_ZL10heapMaster(%rip)
.L32:
.LBE678:
.LBE677:
	.loc 3 390 7
	movq	80+_ZL10heapMaster(%rip), %rax
	movq	%rax, -24(%rbp)
	.loc 3 391 50
	movq	80+_ZL10heapMaster(%rip), %rax
	.loc 3 391 70
	addq	$3680, %rax
	.loc 3 391 35
	movq	%rax, 80+_ZL10heapMaster(%rip)
	.loc 3 394 41
	movq	64+_ZL10heapMaster(%rip), %rdx
	.loc 3 394 26
	movq	-24(%rbp), %rax
	movq	%rdx, 3656(%rax)
	.loc 3 396 32
	movq	-24(%rbp), %rax
	movq	%rax, 64+_ZL10heapMaster(%rip)
.LBB679:
	.loc 3 402 21
	movl	$0, -32(%rbp)
	.loc 3 402 2
	jmp	.L35
.L36:
	.loc 3 405 46 discriminator 3
	movl	-32(%rbp), %edx
	movq	%rdx, %rax
	salq	$2, %rax
	addq	%rdx, %rax
	salq	$3, %rax
	movq	-24(%rbp), %rdx
	addq	%rdx, %rax
	movq	%rax, %rdi
	call	_ZN7uNoCtorI9uSpinLockLb0EE4ctorEv
	.loc 3 407 39 discriminator 3
	movq	-24(%rbp), %rcx
	movl	-32(%rbp), %edx
	movq	%rdx, %rax
	salq	$2, %rax
	addq	%rdx, %rax
	salq	$3, %rax
	addq	%rcx, %rax
	addq	$8, %rax
	movq	$0, (%rax)
	.loc 3 409 37 discriminator 3
	movq	-24(%rbp), %rcx
	movl	-32(%rbp), %edx
	movq	%rdx, %rax
	salq	$2, %rax
	addq	%rdx, %rax
	salq	$3, %rax
	addq	%rcx, %rax
	addq	$16, %rax
	movq	$0, (%rax)
	.loc 3 410 40 discriminator 3
	movq	-24(%rbp), %rcx
	movl	-32(%rbp), %edx
	movq	%rdx, %rax
	salq	$2, %rax
	addq	%rdx, %rax
	salq	$3, %rax
	addq	%rcx, %rax
	leaq	24(%rax), %rdx
	movq	-24(%rbp), %rax
	movq	%rax, (%rdx)
	.loc 3 411 56 discriminator 3
	movl	-32(%rbp), %eax
	leaq	0(,%rax,4), %rdx
	leaq	_ZL11bucketSizes(%rip), %rax
	movl	(%rdx,%rax), %eax
	movl	%eax, %ecx
	.loc 3 411 38 discriminator 3
	movq	-24(%rbp), %rsi
	movl	-32(%rbp), %edx
	movq	%rdx, %rax
	salq	$2, %rax
	addq	%rdx, %rax
	salq	$3, %rax
	addq	%rsi, %rax
	addq	$32, %rax
	movq	%rcx, (%rax)
	.loc 3 402 59 discriminator 3
	addl	$1, -32(%rbp)
.L35:
	.loc 3 402 31 discriminator 1
	cmpl	$90, -32(%rbp)
	jbe	.L36
.LBE679:
	.loc 3 414 21
	movq	-24(%rbp), %rax
	movq	$0, 3640(%rax)
	.loc 3 415 22
	movq	-24(%rbp), %rax
	movq	$0, 3648(%rax)
	.loc 3 416 30
	movq	-24(%rbp), %rax
	movq	$0, 3664(%rax)
	.loc 3 417 23
	movq	-24(%rbp), %rax
	movq	$0, 3672(%rax)
.L30:
.LBE676:
.LBE675:
	.loc 3 419 9
	movq	-24(%rbp), %rax
	.loc 3 420 2
	leave
	.cfi_def_cfa 7, 8
	ret
	.cfi_endproc
.LFE2852:
	.size	_ZN12_GLOBAL__N_110HeapMaster7getHeapEv, .-_ZN12_GLOBAL__N_110HeapMaster7getHeapEv
	.section	.rodata
	.align 8
.LC10:
	.string	"(uSpinLock &)%p.acquire() : internal error, attempt to multiply acquire spin lock by same task."
	.align 8
.LC11:
	.string	"./uC++.h:557: Assertion \"( ! uKernelModuleBoot.disableIntSpin && uKernelModuleBoot.disableIntSpinCnt == 0 ) || ( uKernelModuleBoot.disableIntSpin && uKernelModuleBoot.disableIntSpinCnt > 0 )\" failed.\n"
	.align 8
.LC12:
	.string	"./uC++.h:562: Assertion \"uKernelModuleBoot.disableIntSpin && uKernelModuleBoot.disableIntSpinCnt > 0\" failed.\n"
	.align 8
.LC13:
	.string	"./uC++.h:721: Assertion \"value != 0\" failed.\n"
	.align 8
.LC14:
	.string	"./uC++.h:581: Assertion \"uKernelModuleBoot.disableIntSpin && uKernelModuleBoot.disableIntSpinCnt > 0\" failed.\n"
	.align 8
.LC15:
	.string	"./uC++.h:588: Assertion \"( ! uKernelModuleBoot.disableIntSpin && uKernelModuleBoot.disableIntSpinCnt == 0 ) || ( uKernelModuleBoot.disableIntSpin && uKernelModuleBoot.disableIntSpinCnt > 0 )\" failed.\n"
	.align 8
.LC16:
	.string	"./uC++.h:566: Assertion \"uKernelModuleBoot.disableIntSpin && uKernelModuleBoot.disableIntSpinCnt > 0\" failed.\n"
	.align 8
.LC17:
	.string	"./uC++.h:577: Assertion \"( ! uKernelModuleBoot.disableIntSpin && uKernelModuleBoot.disableIntSpinCnt == 0 ) || ( uKernelModuleBoot.disableIntSpin && uKernelModuleBoot.disableIntSpinCnt > 0 )\" failed.\n"
	.text
	.globl	_Z15heapManagerCtorv
	.hidden	_Z15heapManagerCtorv
	.type	_Z15heapManagerCtorv, @function
_Z15heapManagerCtorv:
.LFB2853:
	.loc 3 424 27
	.cfi_startproc
	endbr64
	pushq	%rbp
	.cfi_def_cfa_offset 16
	.cfi_offset 6, -16
	movq	%rsp, %rbp
	.cfi_def_cfa_register 6
	subq	$80, %rsp
	.loc 3 425 28
	movzbl	_ZL18heapMasterBootFlag(%rip), %eax
	.loc 3 425 26
	xorl	$1, %eax
	.loc 3 425 24
	movzbl	%al, %eax
	testq	%rax, %rax
	setne	%al
	.loc 3 425 2
	testb	%al, %al
	je	.L39
	.loc 3 425 92 discriminator 1
	call	_ZN12_GLOBAL__N_110HeapMaster14heapMasterCtorEv
.L39:
.LBB680:
.LBB681:
	.loc 2 128 94
	leaq	4+_ZL10heapMaster(%rip), %rax
	movq	%rax, -16(%rbp)
	movq	-16(%rbp), %rax
	movq	%rax, -8(%rbp)
	movb	$0, -69(%rbp)
.LBE681:
.LBE680:
.LBB682:
.LBB683:
.LBB684:
.LBB685:
	.loc 2 678 7
	movq	-8(%rbp), %rax
	movl	(%rax), %eax
	.loc 2 678 2
	testl	%eax, %eax
	je	.L41
	.loc 2 679 8
	movq	-8(%rbp), %rax
	movq	%rax, %rsi
	leaq	.LC10(%rip), %rax
	movq	%rax, %rdi
	movl	$0, %eax
	call	_Z5abortPKcz@PLT
.L41:
.LBB686:
.LBB687:
.LBB688:
	.loc 2 557 26
	movzbl	32+_ZN13uKernelModule17uKernelModuleBootE(%rip), %eax
	.loc 2 557 7
	testb	%al, %al
	jne	.L42
	.loc 2 557 64
	movl	36+_ZN13uKernelModule17uKernelModuleBootE(%rip), %eax
	.loc 2 557 41
	testl	%eax, %eax
	je	.L43
.L42:
	.loc 2 557 114
	movzbl	32+_ZN13uKernelModule17uKernelModuleBootE(%rip), %eax
	xorl	$1, %eax
	.loc 2 557 7
	testb	%al, %al
	jne	.L44
	.loc 2 557 152
	movl	36+_ZN13uKernelModule17uKernelModuleBootE(%rip), %eax
	.loc 2 557 129
	testl	%eax, %eax
	jg	.L43
.L44:
	.loc 2 557 7
	movl	$1, %eax
	jmp	.L45
.L43:
	movl	$0, %eax
.L45:
	.loc 2 557 2
	testb	%al, %al
	je	.L46
.LBB689:
	.loc 2 557 70
	movl	$200, %edx
	leaq	.LC11(%rip), %rax
	movq	%rax, %rsi
	movl	$2, %edi
	call	write@PLT
	.loc 2 557 59
	movl	%eax, -48(%rbp)
	.loc 2 557 545
	call	abort@PLT
.L46:
.LBE689:
.LBE688:
	.loc 2 559 37
	movb	$1, 32+_ZN13uKernelModule17uKernelModuleBootE(%rip)
	.loc 2 560 40
	movl	36+_ZN13uKernelModule17uKernelModuleBootE(%rip), %eax
	addl	$1, %eax
	movl	%eax, 36+_ZN13uKernelModule17uKernelModuleBootE(%rip)
.LBB690:
	.loc 2 562 22
	movzbl	32+_ZN13uKernelModule17uKernelModuleBootE(%rip), %eax
	xorl	$1, %eax
	.loc 2 562 7
	testb	%al, %al
	jne	.L47
	.loc 2 562 60
	movl	36+_ZN13uKernelModule17uKernelModuleBootE(%rip), %eax
	.loc 2 562 7
	testl	%eax, %eax
	jg	.L48
.L47:
	movl	$1, %eax
	jmp	.L49
.L48:
	movl	$0, %eax
.L49:
	.loc 2 562 2
	testb	%al, %al
	je	.L80
.LBB691:
	.loc 2 562 70
	movl	$110, %edx
	leaq	.LC12(%rip), %rax
	movq	%rax, %rsi
	movl	$2, %edi
	call	write@PLT
	.loc 2 562 59
	movl	%eax, -44(%rbp)
	.loc 2 562 365
	call	abort@PLT
.L80:
.LBE691:
.LBE690:
	.loc 2 563 2
	nop
.LBE687:
.LBE686:
	.loc 2 716 8
	movq	-8(%rbp), %rax
	movl	$1, (%rax)
	.loc 2 718 2
	nop
.LBE685:
.LBE684:
	.loc 2 744 2
	.loc 2 745 2
	nop
.LBE683:
.LBE682:
	.loc 3 431 38
	call	_ZN12_GLOBAL__N_110HeapMaster7getHeapEv
	.loc 3 431 14
	movq	%rax, _ZL11heapManager(%rip)
.LBB692:
.LBB693:
	.loc 2 128 94
	leaq	4+_ZL10heapMaster(%rip), %rax
	movq	%rax, -40(%rbp)
.LBE693:
.LBE692:
.LBB694:
.LBB695:
	.loc 2 770 2
	movq	-40(%rbp), %rax
	movq	%rax, -32(%rbp)
	movb	$0, -70(%rbp)
.LBB696:
.LBB697:
.LBB698:
	.loc 2 721 2
	movq	-32(%rbp), %rax
	movl	(%rax), %eax
	.loc 2 721 2
	testl	%eax, %eax
	jne	.L52
.LBB699:
	.loc 2 721 70
	movl	$45, %edx
	leaq	.LC13(%rip), %rax
	movq	%rax, %rsi
	movl	$2, %edi
	call	write@PLT
	.loc 2 721 59
	movl	%eax, -68(%rbp)
	.loc 2 721 235
	call	abort@PLT
.L52:
.LBE699:
.LBE698:
	.loc 2 722 15
	movq	-32(%rbp), %rax
	movq	%rax, -24(%rbp)
.LBB700:
.LBB701:
	.file 5 "./uAtomic.h"
	.loc 5 81 17
	movq	-24(%rbp), %rax
	movl	$0, %edx
	movb	%dl, (%rax)
	.loc 5 82 2
	nop
.LBE701:
.LBE700:
	.loc 2 723 2
	cmpb	$0, -70(%rbp)
	je	.L53
.LBB702:
.LBB703:
.LBB704:
	.loc 2 581 22
	movzbl	32+_ZN13uKernelModule17uKernelModuleBootE(%rip), %eax
	xorl	$1, %eax
	.loc 2 581 7
	testb	%al, %al
	jne	.L54
	.loc 2 581 60
	movl	36+_ZN13uKernelModule17uKernelModuleBootE(%rip), %eax
	.loc 2 581 7
	testl	%eax, %eax
	jg	.L55
.L54:
	movl	$1, %eax
	jmp	.L56
.L55:
	movl	$0, %eax
.L56:
	.loc 2 581 2
	testb	%al, %al
	je	.L57
.LBB705:
	.loc 2 581 70
	movl	$110, %edx
	leaq	.LC14(%rip), %rax
	movq	%rax, %rsi
	movl	$2, %edi
	call	write@PLT
	.loc 2 581 59
	movl	%eax, -64(%rbp)
	.loc 2 581 365
	call	abort@PLT
.L57:
.LBE705:
.LBE704:
	.loc 2 583 40
	movl	36+_ZN13uKernelModule17uKernelModuleBootE(%rip), %eax
	subl	$1, %eax
	movl	%eax, 36+_ZN13uKernelModule17uKernelModuleBootE(%rip)
	.loc 2 584 52
	movl	36+_ZN13uKernelModule17uKernelModuleBootE(%rip), %eax
	.loc 2 584 26
	testl	%eax, %eax
	sete	%al
	.loc 2 584 24
	movzbl	%al, %eax
	testq	%rax, %rax
	setne	%al
	.loc 2 584 2
	testb	%al, %al
	je	.L58
	.loc 2 585 37
	movb	$0, 32+_ZN13uKernelModule17uKernelModuleBootE(%rip)
.L58:
.LBB706:
	.loc 2 588 26
	movzbl	32+_ZN13uKernelModule17uKernelModuleBootE(%rip), %eax
	.loc 2 588 7
	testb	%al, %al
	jne	.L59
	.loc 2 588 64
	movl	36+_ZN13uKernelModule17uKernelModuleBootE(%rip), %eax
	.loc 2 588 41
	testl	%eax, %eax
	je	.L60
.L59:
	.loc 2 588 114
	movzbl	32+_ZN13uKernelModule17uKernelModuleBootE(%rip), %eax
	xorl	$1, %eax
	.loc 2 588 7
	testb	%al, %al
	jne	.L61
	.loc 2 588 152
	movl	36+_ZN13uKernelModule17uKernelModuleBootE(%rip), %eax
	.loc 2 588 129
	testl	%eax, %eax
	jg	.L60
.L61:
	.loc 2 588 7
	movl	$1, %eax
	jmp	.L62
.L60:
	movl	$0, %eax
.L62:
	.loc 2 588 2
	testb	%al, %al
	je	.L81
.LBB707:
	.loc 2 588 70
	movl	$200, %edx
	leaq	.LC15(%rip), %rax
	movq	%rax, %rsi
	movl	$2, %edi
	call	write@PLT
	.loc 2 588 59
	movl	%eax, -60(%rbp)
	.loc 2 588 545
	call	abort@PLT
.L53:
.LBE707:
.LBE706:
.LBE703:
.LBE702:
.LBB709:
.LBB710:
.LBB711:
	.loc 2 566 22
	movzbl	32+_ZN13uKernelModule17uKernelModuleBootE(%rip), %eax
	xorl	$1, %eax
	.loc 2 566 7
	testb	%al, %al
	jne	.L65
	.loc 2 566 60
	movl	36+_ZN13uKernelModule17uKernelModuleBootE(%rip), %eax
	.loc 2 566 7
	testl	%eax, %eax
	jg	.L66
.L65:
	movl	$1, %eax
	jmp	.L67
.L66:
	movl	$0, %eax
.L67:
	.loc 2 566 2
	testb	%al, %al
	je	.L68
.LBB712:
	.loc 2 566 70
	movl	$110, %edx
	leaq	.LC16(%rip), %rax
	movq	%rax, %rsi
	movl	$2, %edi
	call	write@PLT
	.loc 2 566 59
	movl	%eax, -56(%rbp)
	.loc 2 566 365
	call	abort@PLT
.L68:
.LBE712:
.LBE711:
	.loc 2 568 40
	movl	36+_ZN13uKernelModule17uKernelModuleBootE(%rip), %eax
	subl	$1, %eax
	movl	%eax, 36+_ZN13uKernelModule17uKernelModuleBootE(%rip)
	.loc 2 569 52
	movl	36+_ZN13uKernelModule17uKernelModuleBootE(%rip), %eax
	.loc 2 569 26
	testl	%eax, %eax
	sete	%al
	.loc 2 569 24
	movzbl	%al, %eax
	testq	%rax, %rax
	setne	%al
	.loc 2 569 2
	testb	%al, %al
	je	.L69
	.loc 2 570 37
	movb	$0, 32+_ZN13uKernelModule17uKernelModuleBootE(%rip)
	.loc 2 572 52
	movzbl	41+_ZN13uKernelModule17uKernelModuleBootE(%rip), %eax
	.loc 2 572 24
	movzbl	%al, %eax
	testq	%rax, %rax
	je	.L70
	.loc 2 572 87
	movzbl	40+_ZN13uKernelModule17uKernelModuleBootE(%rip), %eax
	xorl	$1, %eax
	.loc 2 572 24
	movzbl	%al, %eax
	testq	%rax, %rax
	je	.L70
	movl	$1, %eax
	jmp	.L71
.L70:
	movl	$0, %eax
.L71:
	testb	%al, %al
	je	.L72
	.loc 2 572 125
	movzbl	24+_ZN13uKernelModule17uKernelModuleBootE(%rip), %eax
	xorl	$1, %eax
	.loc 2 572 24
	movzbl	%al, %eax
	testq	%rax, %rax
	je	.L72
	movl	$1, %eax
	jmp	.L73
.L72:
	movl	$0, %eax
.L73:
	movzbl	%al, %eax
	testq	%rax, %rax
	setne	%al
	.loc 2 572 2
	testb	%al, %al
	je	.L69
	.loc 2 573 14
	movl	$0, %edi
	call	_ZN13uKernelModule11rollForwardEb@PLT
.L69:
.LBB713:
	.loc 2 577 26
	movzbl	32+_ZN13uKernelModule17uKernelModuleBootE(%rip), %eax
	.loc 2 577 7
	testb	%al, %al
	jne	.L74
	.loc 2 577 64
	movl	36+_ZN13uKernelModule17uKernelModuleBootE(%rip), %eax
	.loc 2 577 41
	testl	%eax, %eax
	je	.L75
.L74:
	.loc 2 577 114
	movzbl	32+_ZN13uKernelModule17uKernelModuleBootE(%rip), %eax
	xorl	$1, %eax
	.loc 2 577 7
	testb	%al, %al
	jne	.L76
	.loc 2 577 152
	movl	36+_ZN13uKernelModule17uKernelModuleBootE(%rip), %eax
	.loc 2 577 129
	testl	%eax, %eax
	jg	.L75
.L76:
	.loc 2 577 7
	movl	$1, %eax
	jmp	.L77
.L75:
	movl	$0, %eax
.L77:
	.loc 2 577 2
	testb	%al, %al
	je	.L82
.LBB714:
	.loc 2 577 70
	movl	$200, %edx
	leaq	.LC17(%rip), %rax
	movq	%rax, %rsi
	movl	$2, %edi
	call	write@PLT
	.loc 2 577 59
	movl	%eax, -52(%rbp)
	.loc 2 577 545
	call	abort@PLT
.L81:
.LBE714:
.LBE713:
.LBE710:
.LBE709:
.LBB716:
.LBB708:
	.loc 2 589 2
	nop
	jmp	.L64
.L82:
.LBE708:
.LBE716:
.LBB717:
.LBB715:
	.loc 2 578 2
	nop
.L64:
.LBE715:
.LBE717:
	.loc 2 728 2
	nop
.LBE697:
.LBE696:
	.loc 2 772 2
	nop
.LBE695:
.LBE694:
	.loc 3 439 2
	nop
	leave
	.cfi_def_cfa 7, 8
	ret
	.cfi_endproc
.LFE2853:
	.size	_Z15heapManagerCtorv, .-_Z15heapManagerCtorv
	.globl	_Z15heapManagerDtorv
	.hidden	_Z15heapManagerDtorv
	.type	_Z15heapManagerDtorv, @function
_Z15heapManagerDtorv:
.LFB2854:
	.loc 3 443 27
	.cfi_startproc
	endbr64
	pushq	%rbp
	.cfi_def_cfa_offset 16
	.cfi_offset 6, -16
	movq	%rsp, %rbp
	.cfi_def_cfa_register 6
	subq	$80, %rsp
.LBB718:
.LBB719:
	.loc 2 128 94
	leaq	4+_ZL10heapMaster(%rip), %rax
	movq	%rax, -16(%rbp)
	movq	-16(%rbp), %rax
	movq	%rax, -8(%rbp)
	movb	$0, -69(%rbp)
.LBE719:
.LBE718:
.LBB720:
.LBB721:
.LBB722:
.LBB723:
	.loc 2 678 7
	movq	-8(%rbp), %rax
	movl	(%rax), %eax
	.loc 2 678 2
	testl	%eax, %eax
	je	.L85
	.loc 2 679 8
	movq	-8(%rbp), %rax
	movq	%rax, %rsi
	leaq	.LC10(%rip), %rax
	movq	%rax, %rdi
	movl	$0, %eax
	call	_Z5abortPKcz@PLT
.L85:
.LBB724:
.LBB725:
.LBB726:
	.loc 2 557 26
	movzbl	32+_ZN13uKernelModule17uKernelModuleBootE(%rip), %eax
	.loc 2 557 7
	testb	%al, %al
	jne	.L86
	.loc 2 557 64
	movl	36+_ZN13uKernelModule17uKernelModuleBootE(%rip), %eax
	.loc 2 557 41
	testl	%eax, %eax
	je	.L87
.L86:
	.loc 2 557 114
	movzbl	32+_ZN13uKernelModule17uKernelModuleBootE(%rip), %eax
	xorl	$1, %eax
	.loc 2 557 7
	testb	%al, %al
	jne	.L88
	.loc 2 557 152
	movl	36+_ZN13uKernelModule17uKernelModuleBootE(%rip), %eax
	.loc 2 557 129
	testl	%eax, %eax
	jg	.L87
.L88:
	.loc 2 557 7
	movl	$1, %eax
	jmp	.L89
.L87:
	movl	$0, %eax
.L89:
	.loc 2 557 2
	testb	%al, %al
	je	.L90
.LBB727:
	.loc 2 557 70
	movl	$200, %edx
	leaq	.LC11(%rip), %rax
	movq	%rax, %rsi
	movl	$2, %edi
	call	write@PLT
	.loc 2 557 59
	movl	%eax, -48(%rbp)
	.loc 2 557 545
	call	abort@PLT
.L90:
.LBE727:
.LBE726:
	.loc 2 559 37
	movb	$1, 32+_ZN13uKernelModule17uKernelModuleBootE(%rip)
	.loc 2 560 40
	movl	36+_ZN13uKernelModule17uKernelModuleBootE(%rip), %eax
	addl	$1, %eax
	movl	%eax, 36+_ZN13uKernelModule17uKernelModuleBootE(%rip)
.LBB728:
	.loc 2 562 22
	movzbl	32+_ZN13uKernelModule17uKernelModuleBootE(%rip), %eax
	xorl	$1, %eax
	.loc 2 562 7
	testb	%al, %al
	jne	.L91
	.loc 2 562 60
	movl	36+_ZN13uKernelModule17uKernelModuleBootE(%rip), %eax
	.loc 2 562 7
	testl	%eax, %eax
	jg	.L92
.L91:
	movl	$1, %eax
	jmp	.L93
.L92:
	movl	$0, %eax
.L93:
	.loc 2 562 2
	testb	%al, %al
	je	.L124
.LBB729:
	.loc 2 562 70
	movl	$110, %edx
	leaq	.LC12(%rip), %rax
	movq	%rax, %rsi
	movl	$2, %edi
	call	write@PLT
	.loc 2 562 59
	movl	%eax, -44(%rbp)
	.loc 2 562 365
	call	abort@PLT
.L124:
.LBE729:
.LBE728:
	.loc 2 563 2
	nop
.LBE725:
.LBE724:
	.loc 2 716 8
	movq	-8(%rbp), %rax
	movl	$1, (%rax)
	.loc 2 718 2
	nop
.LBE723:
.LBE722:
	.loc 2 744 2
	.loc 2 745 2
	nop
.LBE721:
.LBE720:
	.loc 3 447 17
	movq	_ZL11heapManager(%rip), %rax
	.loc 3 447 52
	movq	72+_ZL10heapMaster(%rip), %rdx
	.loc 3 447 37
	movq	%rdx, 3664(%rax)
	.loc 3 448 36
	movq	_ZL11heapManager(%rip), %rax
	movq	%rax, 72+_ZL10heapMaster(%rip)
.LBB730:
.LBB731:
	.loc 2 128 94
	leaq	4+_ZL10heapMaster(%rip), %rax
	movq	%rax, -40(%rbp)
.LBE731:
.LBE730:
.LBB732:
.LBB733:
	.loc 2 770 2
	movq	-40(%rbp), %rax
	movq	%rax, -32(%rbp)
	movb	$0, -70(%rbp)
.LBB734:
.LBB735:
.LBB736:
	.loc 2 721 2
	movq	-32(%rbp), %rax
	movl	(%rax), %eax
	.loc 2 721 2
	testl	%eax, %eax
	jne	.L96
.LBB737:
	.loc 2 721 70
	movl	$45, %edx
	leaq	.LC13(%rip), %rax
	movq	%rax, %rsi
	movl	$2, %edi
	call	write@PLT
	.loc 2 721 59
	movl	%eax, -68(%rbp)
	.loc 2 721 235
	call	abort@PLT
.L96:
.LBE737:
.LBE736:
	.loc 2 722 15
	movq	-32(%rbp), %rax
	movq	%rax, -24(%rbp)
.LBB738:
.LBB739:
	.loc 5 81 17
	movq	-24(%rbp), %rax
	movl	$0, %edx
	movb	%dl, (%rax)
	.loc 5 82 2
	nop
.LBE739:
.LBE738:
	.loc 2 723 2
	cmpb	$0, -70(%rbp)
	je	.L97
.LBB740:
.LBB741:
.LBB742:
	.loc 2 581 22
	movzbl	32+_ZN13uKernelModule17uKernelModuleBootE(%rip), %eax
	xorl	$1, %eax
	.loc 2 581 7
	testb	%al, %al
	jne	.L98
	.loc 2 581 60
	movl	36+_ZN13uKernelModule17uKernelModuleBootE(%rip), %eax
	.loc 2 581 7
	testl	%eax, %eax
	jg	.L99
.L98:
	movl	$1, %eax
	jmp	.L100
.L99:
	movl	$0, %eax
.L100:
	.loc 2 581 2
	testb	%al, %al
	je	.L101
.LBB743:
	.loc 2 581 70
	movl	$110, %edx
	leaq	.LC14(%rip), %rax
	movq	%rax, %rsi
	movl	$2, %edi
	call	write@PLT
	.loc 2 581 59
	movl	%eax, -64(%rbp)
	.loc 2 581 365
	call	abort@PLT
.L101:
.LBE743:
.LBE742:
	.loc 2 583 40
	movl	36+_ZN13uKernelModule17uKernelModuleBootE(%rip), %eax
	subl	$1, %eax
	movl	%eax, 36+_ZN13uKernelModule17uKernelModuleBootE(%rip)
	.loc 2 584 52
	movl	36+_ZN13uKernelModule17uKernelModuleBootE(%rip), %eax
	.loc 2 584 26
	testl	%eax, %eax
	sete	%al
	.loc 2 584 24
	movzbl	%al, %eax
	testq	%rax, %rax
	setne	%al
	.loc 2 584 2
	testb	%al, %al
	je	.L102
	.loc 2 585 37
	movb	$0, 32+_ZN13uKernelModule17uKernelModuleBootE(%rip)
.L102:
.LBB744:
	.loc 2 588 26
	movzbl	32+_ZN13uKernelModule17uKernelModuleBootE(%rip), %eax
	.loc 2 588 7
	testb	%al, %al
	jne	.L103
	.loc 2 588 64
	movl	36+_ZN13uKernelModule17uKernelModuleBootE(%rip), %eax
	.loc 2 588 41
	testl	%eax, %eax
	je	.L104
.L103:
	.loc 2 588 114
	movzbl	32+_ZN13uKernelModule17uKernelModuleBootE(%rip), %eax
	xorl	$1, %eax
	.loc 2 588 7
	testb	%al, %al
	jne	.L105
	.loc 2 588 152
	movl	36+_ZN13uKernelModule17uKernelModuleBootE(%rip), %eax
	.loc 2 588 129
	testl	%eax, %eax
	jg	.L104
.L105:
	.loc 2 588 7
	movl	$1, %eax
	jmp	.L106
.L104:
	movl	$0, %eax
.L106:
	.loc 2 588 2
	testb	%al, %al
	je	.L125
.LBB745:
	.loc 2 588 70
	movl	$200, %edx
	leaq	.LC15(%rip), %rax
	movq	%rax, %rsi
	movl	$2, %edi
	call	write@PLT
	.loc 2 588 59
	movl	%eax, -60(%rbp)
	.loc 2 588 545
	call	abort@PLT
.L97:
.LBE745:
.LBE744:
.LBE741:
.LBE740:
.LBB747:
.LBB748:
.LBB749:
	.loc 2 566 22
	movzbl	32+_ZN13uKernelModule17uKernelModuleBootE(%rip), %eax
	xorl	$1, %eax
	.loc 2 566 7
	testb	%al, %al
	jne	.L109
	.loc 2 566 60
	movl	36+_ZN13uKernelModule17uKernelModuleBootE(%rip), %eax
	.loc 2 566 7
	testl	%eax, %eax
	jg	.L110
.L109:
	movl	$1, %eax
	jmp	.L111
.L110:
	movl	$0, %eax
.L111:
	.loc 2 566 2
	testb	%al, %al
	je	.L112
.LBB750:
	.loc 2 566 70
	movl	$110, %edx
	leaq	.LC16(%rip), %rax
	movq	%rax, %rsi
	movl	$2, %edi
	call	write@PLT
	.loc 2 566 59
	movl	%eax, -56(%rbp)
	.loc 2 566 365
	call	abort@PLT
.L112:
.LBE750:
.LBE749:
	.loc 2 568 40
	movl	36+_ZN13uKernelModule17uKernelModuleBootE(%rip), %eax
	subl	$1, %eax
	movl	%eax, 36+_ZN13uKernelModule17uKernelModuleBootE(%rip)
	.loc 2 569 52
	movl	36+_ZN13uKernelModule17uKernelModuleBootE(%rip), %eax
	.loc 2 569 26
	testl	%eax, %eax
	sete	%al
	.loc 2 569 24
	movzbl	%al, %eax
	testq	%rax, %rax
	setne	%al
	.loc 2 569 2
	testb	%al, %al
	je	.L113
	.loc 2 570 37
	movb	$0, 32+_ZN13uKernelModule17uKernelModuleBootE(%rip)
	.loc 2 572 52
	movzbl	41+_ZN13uKernelModule17uKernelModuleBootE(%rip), %eax
	.loc 2 572 24
	movzbl	%al, %eax
	testq	%rax, %rax
	je	.L114
	.loc 2 572 87
	movzbl	40+_ZN13uKernelModule17uKernelModuleBootE(%rip), %eax
	xorl	$1, %eax
	.loc 2 572 24
	movzbl	%al, %eax
	testq	%rax, %rax
	je	.L114
	movl	$1, %eax
	jmp	.L115
.L114:
	movl	$0, %eax
.L115:
	testb	%al, %al
	je	.L116
	.loc 2 572 125
	movzbl	24+_ZN13uKernelModule17uKernelModuleBootE(%rip), %eax
	xorl	$1, %eax
	.loc 2 572 24
	movzbl	%al, %eax
	testq	%rax, %rax
	je	.L116
	movl	$1, %eax
	jmp	.L117
.L116:
	movl	$0, %eax
.L117:
	movzbl	%al, %eax
	testq	%rax, %rax
	setne	%al
	.loc 2 572 2
	testb	%al, %al
	je	.L113
	.loc 2 573 14
	movl	$0, %edi
	call	_ZN13uKernelModule11rollForwardEb@PLT
.L113:
.LBB751:
	.loc 2 577 26
	movzbl	32+_ZN13uKernelModule17uKernelModuleBootE(%rip), %eax
	.loc 2 577 7
	testb	%al, %al
	jne	.L118
	.loc 2 577 64
	movl	36+_ZN13uKernelModule17uKernelModuleBootE(%rip), %eax
	.loc 2 577 41
	testl	%eax, %eax
	je	.L119
.L118:
	.loc 2 577 114
	movzbl	32+_ZN13uKernelModule17uKernelModuleBootE(%rip), %eax
	xorl	$1, %eax
	.loc 2 577 7
	testb	%al, %al
	jne	.L120
	.loc 2 577 152
	movl	36+_ZN13uKernelModule17uKernelModuleBootE(%rip), %eax
	.loc 2 577 129
	testl	%eax, %eax
	jg	.L119
.L120:
	.loc 2 577 7
	movl	$1, %eax
	jmp	.L121
.L119:
	movl	$0, %eax
.L121:
	.loc 2 577 2
	testb	%al, %al
	je	.L126
.LBB752:
	.loc 2 577 70
	movl	$200, %edx
	leaq	.LC17(%rip), %rax
	movq	%rax, %rsi
	movl	$2, %edi
	call	write@PLT
	.loc 2 577 59
	movl	%eax, -52(%rbp)
	.loc 2 577 545
	call	abort@PLT
.L125:
.LBE752:
.LBE751:
.LBE748:
.LBE747:
.LBB754:
.LBB746:
	.loc 2 589 2
	nop
	jmp	.L108
.L126:
.LBE746:
.LBE754:
.LBB755:
.LBB753:
	.loc 2 578 2
	nop
.L108:
.LBE753:
.LBE755:
	.loc 2 728 2
	nop
.LBE735:
.LBE734:
	.loc 2 772 2
	nop
.LBE733:
.LBE732:
	.loc 3 457 2
	nop
	leave
	.cfi_def_cfa 7, 8
	ret
	.cfi_endproc
.LFE2854:
	.size	_Z15heapManagerDtorv, .-_Z15heapManagerDtorv
	.section	.rodata
	.align 8
.LC18:
	.string	"/u0/usystem/software/u++-7.0.0/src/kernel/uHeapLmmm.cc:464: Assertion \"heapManager\" failed.\n"
	.text
	.align 2
	.globl	_ZN3UPP12uHeapControl7startupEv
	.type	_ZN3UPP12uHeapControl7startupEv, @function
_ZN3UPP12uHeapControl7startupEv:
.LFB2855:
	.loc 3 463 42
	.cfi_startproc
	endbr64
	pushq	%rbp
	.cfi_def_cfa_offset 16
	.cfi_offset 6, -16
	movq	%rsp, %rbp
	.cfi_def_cfa_register 6
	subq	$16, %rsp
.LBB756:
	.loc 3 464 7
	movq	_ZL11heapManager(%rip), %rax
	.loc 3 464 2
	testq	%rax, %rax
	jne	.L128
.LBB757:
	.loc 3 464 70 discriminator 1
	movl	$92, %edx
	leaq	.LC18(%rip), %rax
	movq	%rax, %rsi
	movl	$2, %edi
	call	write@PLT
	.loc 3 464 59 discriminator 1
	movl	%eax, -4(%rbp)
	.loc 3 464 329 discriminator 1
	call	abort@PLT
.L128:
.LBE757:
.LBE756:
	.loc 3 467 17
	movq	_ZL11heapManager(%rip), %rax
	.loc 3 467 30
	movq	$0, 3672(%rax)
	.loc 3 473 2
	nop
	leave
	.cfi_def_cfa 7, 8
	ret
	.cfi_endproc
.LFE2855:
	.size	_ZN3UPP12uHeapControl7startupEv, .-_ZN3UPP12uHeapControl7startupEv
	.section	.rodata
	.align 8
.LC19:
	.string	"**** Warning **** (UNIX pid:%ld) : program terminating with %llu(0x%llx) bytes of storage allocated but not freed.\nPossible cause is unfreed storage allocated by the program or system/library routines called from the program.\n"
.LC20:
	.string	"write error in shutdown"
	.text
	.align 2
	.globl	_ZN3UPP12uHeapControl8finishupEv
	.type	_ZN3UPP12uHeapControl8finishupEv, @function
_ZN3UPP12uHeapControl8finishupEv:
.LFB2856:
	.loc 3 476 43
	.cfi_startproc
	endbr64
	pushq	%rbp
	.cfi_def_cfa_offset 16
	.cfi_offset 6, -16
	movq	%rsp, %rbp
	.cfi_def_cfa_register 6
	subq	$560, %rsp
	.loc 3 476 43
	movq	%fs:40, %rax
	movq	%rax, -8(%rbp)
	xorl	%eax, %eax
	.loc 3 480 16
	movq	$0, -544(%rbp)
.LBB758:
	.loc 3 481 15
	movq	64+_ZL10heapMaster(%rip), %rax
	movq	%rax, -536(%rbp)
	.loc 3 481 2
	jmp	.L130
.L131:
	.loc 3 483 26 discriminator 3
	movq	-536(%rbp), %rax
	movq	3672(%rax), %rax
	.loc 3 483 15 discriminator 3
	addq	%rax, -544(%rbp)
	.loc 3 481 66 discriminator 3
	movq	-536(%rbp), %rax
	movq	3656(%rax), %rax
	movq	%rax, -536(%rbp)
.L130:
	.loc 3 481 54 discriminator 1
	cmpq	$0, -536(%rbp)
	jne	.L131
.LBE758:
	.loc 3 486 33
	call	malloc_unfreed
	movq	%rax, %rdx
	.loc 3 486 15
	movq	-544(%rbp), %rax
	subq	%rdx, %rax
	movq	%rax, -544(%rbp)
.LBB759:
	.loc 3 488 2
	cmpq	$0, -544(%rbp)
	jle	.L135
.LBB760:
	.loc 3 493 22
	call	getpid@PLT
	.loc 3 491 21
	movslq	%eax, %rdx
	movq	-544(%rbp), %rsi
	movq	-544(%rbp), %rcx
	leaq	-528(%rbp), %rax
	movq	%rsi, %r9
	movq	%rcx, %r8
	movq	%rdx, %rcx
	leaq	.LC19(%rip), %rdx
	movl	$512, %esi
	movq	%rax, %rdi
	movl	$0, %eax
	call	snprintf@PLT
	movl	%eax, -548(%rbp)
	.loc 3 494 13
	movl	-548(%rbp), %eax
	movslq	%eax, %rdx
	leaq	-528(%rbp), %rax
	movq	%rax, %rsi
	movl	$2, %edi
	call	write@PLT
	.loc 3 494 21
	cmpq	$-1, %rax
	sete	%al
	.loc 3 494 2
	testb	%al, %al
	je	.L135
	.loc 3 494 36 discriminator 2
	leaq	.LC20(%rip), %rax
	movq	%rax, %rdi
	movl	$0, %eax
	call	_Z5abortPKcz@PLT
.L135:
.LBE760:
.LBE759:
	.loc 3 497 2
	nop
	movq	-8(%rbp), %rax
	subq	%fs:40, %rax
	je	.L134
	call	__stack_chk_fail@PLT
.L134:
	leave
	.cfi_def_cfa 7, 8
	ret
	.cfi_endproc
.LFE2856:
	.size	_ZN3UPP12uHeapControl8finishupEv, .-_ZN3UPP12uHeapControl8finishupEv
	.align 2
	.globl	_ZN3UPP12uHeapControl11prepareTaskEP9uBaseTask
	.type	_ZN3UPP12uHeapControl11prepareTaskEP9uBaseTask, @function
_ZN3UPP12uHeapControl11prepareTaskEP9uBaseTask:
.LFB2857:
	.loc 3 500 58
	.cfi_startproc
	endbr64
	pushq	%rbp
	.cfi_def_cfa_offset 16
	.cfi_offset 6, -16
	movq	%rsp, %rbp
	.cfi_def_cfa_register 6
	movq	%rdi, -8(%rbp)
	.loc 3 501 2
	nop
	popq	%rbp
	.cfi_def_cfa 7, 8
	ret
	.cfi_endproc
.LFE2857:
	.size	_ZN3UPP12uHeapControl11prepareTaskEP9uBaseTask, .-_ZN3UPP12uHeapControl11prepareTaskEP9uBaseTask
	.section	.rodata
	.align 8
.LC21:
	.string	"heap memory exhausted at %zu bytes.\nPossible cause is very large memory allocation and/or large amount of unfreed storage allocated by the program or system/library routines."
	.section	.text._Z8noMemoryv,"axG",@progbits,_Z8noMemoryv,comdat
	.weak	_Z8noMemoryv
	.type	_Z8noMemoryv, @function
_Z8noMemoryv:
.LFB2858:
	.loc 3 602 27
	.cfi_startproc
	endbr64
	pushq	%rbp
	.cfi_def_cfa_offset 16
	.cfi_offset 6, -16
	movq	%rsp, %rbp
	.cfi_def_cfa_register 6
	.loc 3 605 22
	movl	$0, %edi
	call	sbrk@PLT
	.loc 3 605 58
	movq	8+_ZL10heapMaster(%rip), %rdx
	.loc 3 603 8
	subq	%rdx, %rax
	movq	%rax, %rsi
	leaq	.LC21(%rip), %rax
	movq	%rax, %rdi
	movl	$0, %eax
	call	_Z5abortPKcz@PLT
	.cfi_endproc
.LFE2858:
	.size	_Z8noMemoryv, .-_Z8noMemoryv
	.section	.rodata
	.align 8
.LC22:
	.string	"/u0/usystem/software/u++-7.0.0/src/kernel/uHeapLmmm.cc:616: Assertion \"heapMaster.maxBucketsUsed < Heap::NoBucketSizes\" failed.\n"
	.align 8
.LC23:
	.string	"/u0/usystem/software/u++-7.0.0/src/kernel/uHeapLmmm.cc:617: Assertion \"heapMaster.mmapStart <= bucketSizes[heapMaster.maxBucketsUsed]\" failed.\n"
	.text
	.type	_ZL12setMmapStartm, @function
_ZL12setMmapStartm:
.LFB2859:
	.loc 3 609 51
	.cfi_startproc
	pushq	%rbp
	.cfi_def_cfa_offset 16
	.cfi_offset 6, -16
	movq	%rsp, %rbp
	.cfi_def_cfa_register 6
	subq	$80, %rsp
	movq	%rdi, -72(%rbp)
	.loc 3 610 28
	movq	32+_ZL10heapMaster(%rip), %rax
	.loc 3 610 2
	cmpq	%rax, -72(%rbp)
	jb	.L139
	.loc 3 610 80 discriminator 2
	movl	$4194320, %eax
	movl	%eax, %eax
	.loc 3 610 37 discriminator 2
	cmpq	%rax, -72(%rbp)
	jbe	.L140
.L139:
	.loc 3 610 99 discriminator 3
	movl	$0, %eax
	jmp	.L141
.L140:
	.loc 3 611 25
	movq	-72(%rbp), %rax
	movq	%rax, 48+_ZL10heapMaster(%rip)
	.loc 3 614 56
	movq	48+_ZL10heapMaster(%rip), %rax
	movl	%eax, -44(%rbp)
	leaq	_ZL11bucketSizes(%rip), %rax
	movq	%rax, -40(%rbp)
	movq	$91, -32(%rbp)
.LBB761:
.LBB762:
	.loc 3 287 9
	movq	$0, -24(%rbp)
	.loc 3 287 21
	movq	-32(%rbp), %rax
	movq	%rax, -16(%rbp)
	.loc 3 288 2
	jmp	.L142
.L144:
	.loc 3 289 10
	movq	-24(%rbp), %rdx
	movq	-16(%rbp), %rax
	addq	%rdx, %rax
	.loc 3 289 4
	shrq	%rax
	movq	%rax, -8(%rbp)
	.loc 3 290 37
	movq	-8(%rbp), %rax
	leaq	0(,%rax,4), %rdx
	movq	-40(%rbp), %rax
	addq	%rdx, %rax
	.loc 3 290 7
	movl	(%rax), %eax
	.loc 3 290 2
	cmpl	%eax, -44(%rbp)
	jbe	.L143
	.loc 3 291 4
	movq	-8(%rbp), %rax
	addq	$1, %rax
	movq	%rax, -24(%rbp)
	jmp	.L142
.L143:
	.loc 3 293 4
	movq	-8(%rbp), %rax
	movq	%rax, -16(%rbp)
.L142:
	.loc 3 288 12
	movq	-24(%rbp), %rax
	cmpq	-16(%rbp), %rax
	jb	.L144
	.loc 3 296 9
	movq	-24(%rbp), %rax
.LBE762:
.LBE761:
	.loc 3 614 30
	movl	%eax, 56+_ZL10heapMaster(%rip)
.LBB763:
	.loc 3 616 15
	movl	56+_ZL10heapMaster(%rip), %eax
	.loc 3 616 2
	cmpl	$90, %eax
	jbe	.L146
.LBB764:
	.loc 3 616 70 discriminator 1
	movl	$128, %edx
	leaq	.LC22(%rip), %rax
	movq	%rax, %rsi
	movl	$2, %edi
	call	write@PLT
	.loc 3 616 59 discriminator 1
	movl	%eax, -48(%rbp)
	.loc 3 616 401 discriminator 1
	call	abort@PLT
.L146:
.LBE764:
.LBE763:
.LBB765:
	.loc 3 617 15
	movq	48+_ZL10heapMaster(%rip), %rax
	.loc 3 617 55
	movl	56+_ZL10heapMaster(%rip), %edx
	.loc 3 617 70
	movl	%edx, %edx
	leaq	0(,%rdx,4), %rcx
	leaq	_ZL11bucketSizes(%rip), %rdx
	movl	(%rcx,%rdx), %edx
	movl	%edx, %edx
	.loc 3 617 2
	cmpq	%rdx, %rax
	jbe	.L147
.LBB766:
	.loc 3 617 70 discriminator 1
	movl	$143, %edx
	leaq	.LC23(%rip), %rax
	movq	%rax, %rsi
	movl	$2, %edi
	call	write@PLT
	.loc 3 617 59 discriminator 1
	movl	%eax, -52(%rbp)
	.loc 3 617 431 discriminator 1
	call	abort@PLT
.L147:
.LBE766:
.LBE765:
	.loc 3 618 9
	movl	$1, %eax
.L141:
	.loc 3 619 2
	leave
	.cfi_def_cfa 7, 8
	ret
	.cfi_endproc
.LFE2859:
	.size	_ZL12setMmapStartm, .-_ZL12setMmapStartm
	.type	_ZL13master_extendm, @function
_ZL13master_extendm:
.LFB2864:
	.loc 3 726 53
	.cfi_startproc
	pushq	%rbp
	.cfi_def_cfa_offset 16
	.cfi_offset 6, -16
	movq	%rsp, %rbp
	.cfi_def_cfa_register 6
	subq	$224, %rsp
	movq	%rdi, -216(%rbp)
.LBB767:
.LBB768:
	.loc 2 128 94
	leaq	_ZL10heapMaster(%rip), %rax
	movq	%rax, -112(%rbp)
	movq	-112(%rbp), %rax
	movq	%rax, -104(%rbp)
	movb	$0, -195(%rbp)
.LBE768:
.LBE767:
.LBB769:
.LBB770:
.LBB771:
.LBB772:
	.loc 2 678 7
	movq	-104(%rbp), %rax
	movl	(%rax), %eax
	.loc 2 678 2
	testl	%eax, %eax
	je	.L150
	.loc 2 679 8
	movq	-104(%rbp), %rax
	movq	%rax, %rsi
	leaq	.LC10(%rip), %rax
	movq	%rax, %rdi
	movl	$0, %eax
	call	_Z5abortPKcz@PLT
.L150:
.LBB773:
.LBB774:
.LBB775:
	.loc 2 557 26
	movzbl	32+_ZN13uKernelModule17uKernelModuleBootE(%rip), %eax
	.loc 2 557 7
	testb	%al, %al
	jne	.L151
	.loc 2 557 64
	movl	36+_ZN13uKernelModule17uKernelModuleBootE(%rip), %eax
	.loc 2 557 41
	testl	%eax, %eax
	je	.L152
.L151:
	.loc 2 557 114
	movzbl	32+_ZN13uKernelModule17uKernelModuleBootE(%rip), %eax
	xorl	$1, %eax
	.loc 2 557 7
	testb	%al, %al
	jne	.L153
	.loc 2 557 152
	movl	36+_ZN13uKernelModule17uKernelModuleBootE(%rip), %eax
	.loc 2 557 129
	testl	%eax, %eax
	jg	.L152
.L153:
	.loc 2 557 7
	movl	$1, %eax
	jmp	.L154
.L152:
	movl	$0, %eax
.L154:
	.loc 2 557 2
	testb	%al, %al
	je	.L155
.LBB776:
	.loc 2 557 70
	movl	$200, %edx
	leaq	.LC11(%rip), %rax
	movq	%rax, %rsi
	movl	$2, %edi
	call	write@PLT
	.loc 2 557 59
	movl	%eax, -192(%rbp)
	.loc 2 557 545
	call	abort@PLT
.L155:
.LBE776:
.LBE775:
	.loc 2 559 37
	movb	$1, 32+_ZN13uKernelModule17uKernelModuleBootE(%rip)
	.loc 2 560 40
	movl	36+_ZN13uKernelModule17uKernelModuleBootE(%rip), %eax
	addl	$1, %eax
	movl	%eax, 36+_ZN13uKernelModule17uKernelModuleBootE(%rip)
.LBB777:
	.loc 2 562 22
	movzbl	32+_ZN13uKernelModule17uKernelModuleBootE(%rip), %eax
	xorl	$1, %eax
	.loc 2 562 7
	testb	%al, %al
	jne	.L156
	.loc 2 562 60
	movl	36+_ZN13uKernelModule17uKernelModuleBootE(%rip), %eax
	.loc 2 562 7
	testl	%eax, %eax
	jg	.L157
.L156:
	movl	$1, %eax
	jmp	.L158
.L157:
	movl	$0, %eax
.L158:
	.loc 2 562 2
	testb	%al, %al
	je	.L228
.LBB778:
	.loc 2 562 70
	movl	$110, %edx
	leaq	.LC12(%rip), %rax
	movq	%rax, %rsi
	movl	$2, %edi
	call	write@PLT
	.loc 2 562 59
	movl	%eax, -188(%rbp)
	.loc 2 562 365
	call	abort@PLT
.L228:
.LBE778:
.LBE777:
	.loc 2 563 2
	nop
.LBE774:
.LBE773:
	.loc 2 716 8
	movq	-104(%rbp), %rax
	movl	$1, (%rax)
	.loc 2 718 2
	nop
.LBE772:
.LBE771:
	.loc 2 744 2
	.loc 2 745 2
	nop
.LBE770:
.LBE769:
	.loc 3 729 31
	movq	24+_ZL10heapMaster(%rip), %rax
	.loc 3 729 45
	subq	-216(%rbp), %rax
	.loc 3 729 12
	movq	%rax, -136(%rbp)
.LBB779:
	.loc 3 730 26
	movq	-136(%rbp), %rax
	shrq	$63, %rax
	.loc 3 730 24
	movzbl	%al, %eax
	.loc 3 730 2
	testq	%rax, %rax
	je	.L160
.LBB780:
	.loc 3 733 51
	movq	40+_ZL10heapMaster(%rip), %rax
	.loc 3 733 29
	cmpq	%rax, -216(%rbp)
	ja	.L161
	.loc 3 733 29 is_stmt 0 discriminator 1
	movq	40+_ZL10heapMaster(%rip), %rax
	jmp	.L162
.L161:
	.loc 3 733 29 discriminator 2
	movq	-216(%rbp), %rax
.L162:
	movq	%rax, -96(%rbp)
	movq	$16, -88(%rbp)
	movq	-88(%rbp), %rax
	movq	%rax, -80(%rbp)
.LBB781:
.LBB782:
.LBB783:
.LBB784:
.LBB785:
	.loc 4 40 27 is_stmt 1 discriminator 4
	movq	-80(%rbp), %rax
	subq	$1, %rax
	.loc 4 40 17 discriminator 4
	andq	-80(%rbp), %rax
	.loc 4 40 38 discriminator 4
	testq	%rax, %rax
	sete	%al
.LBE785:
.LBE784:
	.loc 4 56 7 discriminator 4
	xorl	$1, %eax
	.loc 4 56 2 discriminator 4
	testb	%al, %al
	je	.L164
.LBB786:
	.loc 4 56 95
	movl	$50, %edx
	leaq	.LC1(%rip), %rax
	movq	%rax, %rsi
	movl	$2, %edi
	call	write@PLT
	.loc 4 56 84
	movl	%eax, -184(%rbp)
	.loc 4 56 173
	call	abort@PLT
.L164:
.LBE786:
.LBE783:
	.loc 4 58 18
	movq	-96(%rbp), %rax
	negq	%rax
	movq	%rax, -72(%rbp)
	movq	-88(%rbp), %rax
	movq	%rax, -64(%rbp)
	movq	-64(%rbp), %rax
	movq	%rax, -56(%rbp)
.LBB787:
.LBB788:
.LBB789:
.LBB790:
.LBB791:
	.loc 4 40 27
	movq	-56(%rbp), %rax
	subq	$1, %rax
	.loc 4 40 17
	andq	-56(%rbp), %rax
	.loc 4 40 38
	testq	%rax, %rax
	sete	%al
.LBE791:
.LBE790:
	.loc 4 47 7
	xorl	$1, %eax
	.loc 4 47 2
	testb	%al, %al
	je	.L166
.LBB792:
	.loc 4 47 95
	movl	$50, %edx
	leaq	.LC2(%rip), %rax
	movq	%rax, %rsi
	movl	$2, %edi
	call	write@PLT
	.loc 4 47 84
	movl	%eax, -180(%rbp)
	.loc 4 47 173
	call	abort@PLT
.L166:
.LBE792:
.LBE789:
	.loc 4 49 17
	movq	-64(%rbp), %rax
	negq	%rax
	.loc 4 49 19
	andq	-72(%rbp), %rax
.LBE788:
.LBE787:
	.loc 4 58 36
	negq	%rax
.LBE782:
.LBE781:
	.loc 3 733 29
	movq	%rax, -128(%rbp)
	.loc 3 734 37
	movq	-128(%rbp), %rax
	movq	%rax, %rdi
	call	sbrk@PLT
	.loc 3 734 26
	cmpq	$-1, %rax
	sete	%al
	.loc 3 734 24
	movzbl	%al, %eax
	testq	%rax, %rax
	setne	%al
	.loc 3 734 2
	testb	%al, %al
	je	.L169
.LBB793:
.LBB794:
	.loc 2 128 94
	leaq	_ZL10heapMaster(%rip), %rax
	movq	%rax, -48(%rbp)
.LBE794:
.LBE793:
.LBB795:
.LBB796:
	.loc 2 770 2
	movq	-48(%rbp), %rax
	movq	%rax, -40(%rbp)
	movb	$0, -194(%rbp)
.LBB797:
.LBB798:
.LBB799:
	.loc 2 721 2
	movq	-40(%rbp), %rax
	movl	(%rax), %eax
	.loc 2 721 2
	testl	%eax, %eax
	jne	.L171
.LBB800:
	.loc 2 721 70
	movl	$45, %edx
	leaq	.LC13(%rip), %rax
	movq	%rax, %rsi
	movl	$2, %edi
	call	write@PLT
	.loc 2 721 59
	movl	%eax, -176(%rbp)
	.loc 2 721 235
	call	abort@PLT
.L171:
.LBE800:
.LBE799:
	.loc 2 722 15
	movq	-40(%rbp), %rax
	movq	%rax, -32(%rbp)
.LBB801:
.LBB802:
	.loc 5 81 17
	movq	-32(%rbp), %rax
	movl	$0, %edx
	movb	%dl, (%rax)
	.loc 5 82 2
	nop
.LBE802:
.LBE801:
	.loc 2 723 2
	cmpb	$0, -194(%rbp)
	je	.L172
.LBB803:
.LBB804:
.LBB805:
	.loc 2 581 22
	movzbl	32+_ZN13uKernelModule17uKernelModuleBootE(%rip), %eax
	xorl	$1, %eax
	.loc 2 581 7
	testb	%al, %al
	jne	.L173
	.loc 2 581 60
	movl	36+_ZN13uKernelModule17uKernelModuleBootE(%rip), %eax
	.loc 2 581 7
	testl	%eax, %eax
	jg	.L174
.L173:
	movl	$1, %eax
	jmp	.L175
.L174:
	movl	$0, %eax
.L175:
	.loc 2 581 2
	testb	%al, %al
	je	.L176
.LBB806:
	.loc 2 581 70
	movl	$110, %edx
	leaq	.LC14(%rip), %rax
	movq	%rax, %rsi
	movl	$2, %edi
	call	write@PLT
	.loc 2 581 59
	movl	%eax, -172(%rbp)
	.loc 2 581 365
	call	abort@PLT
.L176:
.LBE806:
.LBE805:
	.loc 2 583 40
	movl	36+_ZN13uKernelModule17uKernelModuleBootE(%rip), %eax
	subl	$1, %eax
	movl	%eax, 36+_ZN13uKernelModule17uKernelModuleBootE(%rip)
	.loc 2 584 52
	movl	36+_ZN13uKernelModule17uKernelModuleBootE(%rip), %eax
	.loc 2 584 26
	testl	%eax, %eax
	sete	%al
	.loc 2 584 24
	movzbl	%al, %eax
	testq	%rax, %rax
	setne	%al
	.loc 2 584 2
	testb	%al, %al
	je	.L177
	.loc 2 585 37
	movb	$0, 32+_ZN13uKernelModule17uKernelModuleBootE(%rip)
.L177:
.LBB807:
	.loc 2 588 26
	movzbl	32+_ZN13uKernelModule17uKernelModuleBootE(%rip), %eax
	.loc 2 588 7
	testb	%al, %al
	jne	.L178
	.loc 2 588 64
	movl	36+_ZN13uKernelModule17uKernelModuleBootE(%rip), %eax
	.loc 2 588 41
	testl	%eax, %eax
	je	.L179
.L178:
	.loc 2 588 114
	movzbl	32+_ZN13uKernelModule17uKernelModuleBootE(%rip), %eax
	xorl	$1, %eax
	.loc 2 588 7
	testb	%al, %al
	jne	.L180
	.loc 2 588 152
	movl	36+_ZN13uKernelModule17uKernelModuleBootE(%rip), %eax
	.loc 2 588 129
	testl	%eax, %eax
	jg	.L179
.L180:
	.loc 2 588 7
	movl	$1, %eax
	jmp	.L181
.L179:
	movl	$0, %eax
.L181:
	.loc 2 588 2
	testb	%al, %al
	je	.L229
.LBB808:
	.loc 2 588 70
	movl	$200, %edx
	leaq	.LC15(%rip), %rax
	movq	%rax, %rsi
	movl	$2, %edi
	call	write@PLT
	.loc 2 588 59
	movl	%eax, -168(%rbp)
	.loc 2 588 545
	call	abort@PLT
.L172:
.LBE808:
.LBE807:
.LBE804:
.LBE803:
.LBB810:
.LBB811:
.LBB812:
	.loc 2 566 22
	movzbl	32+_ZN13uKernelModule17uKernelModuleBootE(%rip), %eax
	xorl	$1, %eax
	.loc 2 566 7
	testb	%al, %al
	jne	.L184
	.loc 2 566 60
	movl	36+_ZN13uKernelModule17uKernelModuleBootE(%rip), %eax
	.loc 2 566 7
	testl	%eax, %eax
	jg	.L185
.L184:
	movl	$1, %eax
	jmp	.L186
.L185:
	movl	$0, %eax
.L186:
	.loc 2 566 2
	testb	%al, %al
	je	.L187
.LBB813:
	.loc 2 566 70
	movl	$110, %edx
	leaq	.LC16(%rip), %rax
	movq	%rax, %rsi
	movl	$2, %edi
	call	write@PLT
	.loc 2 566 59
	movl	%eax, -164(%rbp)
	.loc 2 566 365
	call	abort@PLT
.L187:
.LBE813:
.LBE812:
	.loc 2 568 40
	movl	36+_ZN13uKernelModule17uKernelModuleBootE(%rip), %eax
	subl	$1, %eax
	movl	%eax, 36+_ZN13uKernelModule17uKernelModuleBootE(%rip)
	.loc 2 569 52
	movl	36+_ZN13uKernelModule17uKernelModuleBootE(%rip), %eax
	.loc 2 569 26
	testl	%eax, %eax
	sete	%al
	.loc 2 569 24
	movzbl	%al, %eax
	testq	%rax, %rax
	setne	%al
	.loc 2 569 2
	testb	%al, %al
	je	.L188
	.loc 2 570 37
	movb	$0, 32+_ZN13uKernelModule17uKernelModuleBootE(%rip)
	.loc 2 572 52
	movzbl	41+_ZN13uKernelModule17uKernelModuleBootE(%rip), %eax
	.loc 2 572 24
	movzbl	%al, %eax
	testq	%rax, %rax
	je	.L189
	.loc 2 572 87
	movzbl	40+_ZN13uKernelModule17uKernelModuleBootE(%rip), %eax
	xorl	$1, %eax
	.loc 2 572 24
	movzbl	%al, %eax
	testq	%rax, %rax
	je	.L189
	movl	$1, %eax
	jmp	.L190
.L189:
	movl	$0, %eax
.L190:
	testb	%al, %al
	je	.L191
	.loc 2 572 125
	movzbl	24+_ZN13uKernelModule17uKernelModuleBootE(%rip), %eax
	xorl	$1, %eax
	.loc 2 572 24
	movzbl	%al, %eax
	testq	%rax, %rax
	je	.L191
	movl	$1, %eax
	jmp	.L192
.L191:
	movl	$0, %eax
.L192:
	movzbl	%al, %eax
	testq	%rax, %rax
	setne	%al
	.loc 2 572 2
	testb	%al, %al
	je	.L188
	.loc 2 573 14
	movl	$0, %edi
	call	_ZN13uKernelModule11rollForwardEb@PLT
.L188:
.LBB814:
	.loc 2 577 26
	movzbl	32+_ZN13uKernelModule17uKernelModuleBootE(%rip), %eax
	.loc 2 577 7
	testb	%al, %al
	jne	.L193
	.loc 2 577 64
	movl	36+_ZN13uKernelModule17uKernelModuleBootE(%rip), %eax
	.loc 2 577 41
	testl	%eax, %eax
	je	.L194
.L193:
	.loc 2 577 114
	movzbl	32+_ZN13uKernelModule17uKernelModuleBootE(%rip), %eax
	xorl	$1, %eax
	.loc 2 577 7
	testb	%al, %al
	jne	.L195
	.loc 2 577 152
	movl	36+_ZN13uKernelModule17uKernelModuleBootE(%rip), %eax
	.loc 2 577 129
	testl	%eax, %eax
	jg	.L194
.L195:
	.loc 2 577 7
	movl	$1, %eax
	jmp	.L196
.L194:
	movl	$0, %eax
.L196:
	.loc 2 577 2
	testb	%al, %al
	je	.L230
.LBB815:
	.loc 2 577 70
	movl	$200, %edx
	leaq	.LC17(%rip), %rax
	movq	%rax, %rsi
	movl	$2, %edi
	call	write@PLT
	.loc 2 577 59
	movl	%eax, -160(%rbp)
	.loc 2 577 545
	call	abort@PLT
.L229:
.LBE815:
.LBE814:
.LBE811:
.LBE810:
.LBB817:
.LBB809:
	.loc 2 589 2
	nop
	jmp	.L183
.L230:
.LBE809:
.LBE817:
.LBB818:
.LBB816:
	.loc 2 578 2
	nop
.L183:
.LBE816:
.LBE818:
	.loc 2 728 2
	nop
.LBE798:
.LBE797:
	.loc 2 772 2
	nop
.LBE796:
.LBE795:
	.loc 3 736 8
	movq	-216(%rbp), %rax
	movq	%rax, %rsi
	leaq	.LC8(%rip), %rax
	movq	%rax, %rdi
	movl	$0, %eax
	call	_Z5abortPKcz@PLT
.L169:
	.loc 3 738 21
	movq	24+_ZL10heapMaster(%rip), %rdx
	.loc 3 738 35
	movq	-128(%rbp), %rax
	addq	%rdx, %rax
	.loc 3 738 46
	subq	-216(%rbp), %rax
	.loc 3 738 6
	movq	%rax, -136(%rbp)
.L160:
.LBE780:
.LBE779:
	.loc 3 746 20
	movq	16+_ZL10heapMaster(%rip), %rax
	movq	%rax, -120(%rbp)
	.loc 3 747 31
	movq	-136(%rbp), %rax
	.loc 3 747 29
	movq	%rax, 24+_ZL10heapMaster(%rip)
	.loc 3 748 49
	movq	16+_ZL10heapMaster(%rip), %rdx
	.loc 3 748 57
	movq	-216(%rbp), %rax
	addq	%rdx, %rax
	.loc 3 748 23
	movq	%rax, 16+_ZL10heapMaster(%rip)
.LBB819:
.LBB820:
	.loc 2 128 94
	leaq	_ZL10heapMaster(%rip), %rax
	movq	%rax, -24(%rbp)
.LBE820:
.LBE819:
.LBB821:
.LBB822:
	.loc 2 770 2
	movq	-24(%rbp), %rax
	movq	%rax, -16(%rbp)
	movb	$0, -193(%rbp)
.LBB823:
.LBB824:
.LBB825:
	.loc 2 721 2
	movq	-16(%rbp), %rax
	movl	(%rax), %eax
	.loc 2 721 2
	testl	%eax, %eax
	jne	.L199
.LBB826:
	.loc 2 721 70
	movl	$45, %edx
	leaq	.LC13(%rip), %rax
	movq	%rax, %rsi
	movl	$2, %edi
	call	write@PLT
	.loc 2 721 59
	movl	%eax, -156(%rbp)
	.loc 2 721 235
	call	abort@PLT
.L199:
.LBE826:
.LBE825:
	.loc 2 722 15
	movq	-16(%rbp), %rax
	movq	%rax, -8(%rbp)
.LBB827:
.LBB828:
	.loc 5 81 17
	movq	-8(%rbp), %rax
	movl	$0, %edx
	movb	%dl, (%rax)
	.loc 5 82 2
	nop
.LBE828:
.LBE827:
	.loc 2 723 2
	cmpb	$0, -193(%rbp)
	je	.L200
.LBB829:
.LBB830:
.LBB831:
	.loc 2 581 22
	movzbl	32+_ZN13uKernelModule17uKernelModuleBootE(%rip), %eax
	xorl	$1, %eax
	.loc 2 581 7
	testb	%al, %al
	jne	.L201
	.loc 2 581 60
	movl	36+_ZN13uKernelModule17uKernelModuleBootE(%rip), %eax
	.loc 2 581 7
	testl	%eax, %eax
	jg	.L202
.L201:
	movl	$1, %eax
	jmp	.L203
.L202:
	movl	$0, %eax
.L203:
	.loc 2 581 2
	testb	%al, %al
	je	.L204
.LBB832:
	.loc 2 581 70
	movl	$110, %edx
	leaq	.LC14(%rip), %rax
	movq	%rax, %rsi
	movl	$2, %edi
	call	write@PLT
	.loc 2 581 59
	movl	%eax, -152(%rbp)
	.loc 2 581 365
	call	abort@PLT
.L204:
.LBE832:
.LBE831:
	.loc 2 583 40
	movl	36+_ZN13uKernelModule17uKernelModuleBootE(%rip), %eax
	subl	$1, %eax
	movl	%eax, 36+_ZN13uKernelModule17uKernelModuleBootE(%rip)
	.loc 2 584 52
	movl	36+_ZN13uKernelModule17uKernelModuleBootE(%rip), %eax
	.loc 2 584 26
	testl	%eax, %eax
	sete	%al
	.loc 2 584 24
	movzbl	%al, %eax
	testq	%rax, %rax
	setne	%al
	.loc 2 584 2
	testb	%al, %al
	je	.L205
	.loc 2 585 37
	movb	$0, 32+_ZN13uKernelModule17uKernelModuleBootE(%rip)
.L205:
.LBB833:
	.loc 2 588 26
	movzbl	32+_ZN13uKernelModule17uKernelModuleBootE(%rip), %eax
	.loc 2 588 7
	testb	%al, %al
	jne	.L206
	.loc 2 588 64
	movl	36+_ZN13uKernelModule17uKernelModuleBootE(%rip), %eax
	.loc 2 588 41
	testl	%eax, %eax
	je	.L207
.L206:
	.loc 2 588 114
	movzbl	32+_ZN13uKernelModule17uKernelModuleBootE(%rip), %eax
	xorl	$1, %eax
	.loc 2 588 7
	testb	%al, %al
	jne	.L208
	.loc 2 588 152
	movl	36+_ZN13uKernelModule17uKernelModuleBootE(%rip), %eax
	.loc 2 588 129
	testl	%eax, %eax
	jg	.L207
.L208:
	.loc 2 588 7
	movl	$1, %eax
	jmp	.L209
.L207:
	movl	$0, %eax
.L209:
	.loc 2 588 2
	testb	%al, %al
	je	.L231
.LBB834:
	.loc 2 588 70
	movl	$200, %edx
	leaq	.LC15(%rip), %rax
	movq	%rax, %rsi
	movl	$2, %edi
	call	write@PLT
	.loc 2 588 59
	movl	%eax, -148(%rbp)
	.loc 2 588 545
	call	abort@PLT
.L200:
.LBE834:
.LBE833:
.LBE830:
.LBE829:
.LBB836:
.LBB837:
.LBB838:
	.loc 2 566 22
	movzbl	32+_ZN13uKernelModule17uKernelModuleBootE(%rip), %eax
	xorl	$1, %eax
	.loc 2 566 7
	testb	%al, %al
	jne	.L212
	.loc 2 566 60
	movl	36+_ZN13uKernelModule17uKernelModuleBootE(%rip), %eax
	.loc 2 566 7
	testl	%eax, %eax
	jg	.L213
.L212:
	movl	$1, %eax
	jmp	.L214
.L213:
	movl	$0, %eax
.L214:
	.loc 2 566 2
	testb	%al, %al
	je	.L215
.LBB839:
	.loc 2 566 70
	movl	$110, %edx
	leaq	.LC16(%rip), %rax
	movq	%rax, %rsi
	movl	$2, %edi
	call	write@PLT
	.loc 2 566 59
	movl	%eax, -144(%rbp)
	.loc 2 566 365
	call	abort@PLT
.L215:
.LBE839:
.LBE838:
	.loc 2 568 40
	movl	36+_ZN13uKernelModule17uKernelModuleBootE(%rip), %eax
	subl	$1, %eax
	movl	%eax, 36+_ZN13uKernelModule17uKernelModuleBootE(%rip)
	.loc 2 569 52
	movl	36+_ZN13uKernelModule17uKernelModuleBootE(%rip), %eax
	.loc 2 569 26
	testl	%eax, %eax
	sete	%al
	.loc 2 569 24
	movzbl	%al, %eax
	testq	%rax, %rax
	setne	%al
	.loc 2 569 2
	testb	%al, %al
	je	.L216
	.loc 2 570 37
	movb	$0, 32+_ZN13uKernelModule17uKernelModuleBootE(%rip)
	.loc 2 572 52
	movzbl	41+_ZN13uKernelModule17uKernelModuleBootE(%rip), %eax
	.loc 2 572 24
	movzbl	%al, %eax
	testq	%rax, %rax
	je	.L217
	.loc 2 572 87
	movzbl	40+_ZN13uKernelModule17uKernelModuleBootE(%rip), %eax
	xorl	$1, %eax
	.loc 2 572 24
	movzbl	%al, %eax
	testq	%rax, %rax
	je	.L217
	movl	$1, %eax
	jmp	.L218
.L217:
	movl	$0, %eax
.L218:
	testb	%al, %al
	je	.L219
	.loc 2 572 125
	movzbl	24+_ZN13uKernelModule17uKernelModuleBootE(%rip), %eax
	xorl	$1, %eax
	.loc 2 572 24
	movzbl	%al, %eax
	testq	%rax, %rax
	je	.L219
	movl	$1, %eax
	jmp	.L220
.L219:
	movl	$0, %eax
.L220:
	movzbl	%al, %eax
	testq	%rax, %rax
	setne	%al
	.loc 2 572 2
	testb	%al, %al
	je	.L216
	.loc 2 573 14
	movl	$0, %edi
	call	_ZN13uKernelModule11rollForwardEb@PLT
.L216:
.LBB840:
	.loc 2 577 26
	movzbl	32+_ZN13uKernelModule17uKernelModuleBootE(%rip), %eax
	.loc 2 577 7
	testb	%al, %al
	jne	.L221
	.loc 2 577 64
	movl	36+_ZN13uKernelModule17uKernelModuleBootE(%rip), %eax
	.loc 2 577 41
	testl	%eax, %eax
	je	.L222
.L221:
	.loc 2 577 114
	movzbl	32+_ZN13uKernelModule17uKernelModuleBootE(%rip), %eax
	xorl	$1, %eax
	.loc 2 577 7
	testb	%al, %al
	jne	.L223
	.loc 2 577 152
	movl	36+_ZN13uKernelModule17uKernelModuleBootE(%rip), %eax
	.loc 2 577 129
	testl	%eax, %eax
	jg	.L222
.L223:
	.loc 2 577 7
	movl	$1, %eax
	jmp	.L224
.L222:
	movl	$0, %eax
.L224:
	.loc 2 577 2
	testb	%al, %al
	je	.L232
.LBB841:
	.loc 2 577 70
	movl	$200, %edx
	leaq	.LC17(%rip), %rax
	movq	%rax, %rsi
	movl	$2, %edi
	call	write@PLT
	.loc 2 577 59
	movl	%eax, -140(%rbp)
	.loc 2 577 545
	call	abort@PLT
.L231:
.LBE841:
.LBE840:
.LBE837:
.LBE836:
.LBB843:
.LBB835:
	.loc 2 589 2
	nop
	jmp	.L211
.L232:
.LBE835:
.LBE843:
.LBB844:
.LBB842:
	.loc 2 578 2
	nop
.L211:
.LBE842:
.LBE844:
	.loc 2 728 2
	nop
.LBE824:
.LBE823:
	.loc 2 772 2
	nop
.LBE822:
.LBE821:
	.loc 3 751 9
	movq	-120(%rbp), %rax
	.loc 3 752 2
	leave
	.cfi_def_cfa 7, 8
	ret
	.cfi_endproc
.LFE2864:
	.size	_ZL13master_extendm, .-_ZL13master_extendm
	.type	_ZL14manager_extendm, @function
_ZL14manager_extendm:
.LFB2865:
	.loc 3 756 47
	.cfi_startproc
	endbr64
	pushq	%rbp
	.cfi_def_cfa_offset 16
	.cfi_offset 6, -16
	movq	%rsp, %rbp
	.cfi_def_cfa_register 6
	pushq	%rbx
	subq	$168, %rsp
	.cfi_offset 3, -24
	movq	%rdi, -168(%rbp)
	.loc 3 757 33
	movq	_ZL11heapManager(%rip), %rax
	movq	3648(%rax), %rax
	.loc 3 757 45
	subq	-168(%rbp), %rax
	.loc 3 757 12
	movq	%rax, -144(%rbp)
.LBB845:
	.loc 3 759 26
	movq	-144(%rbp), %rax
	shrq	$63, %rax
	.loc 3 759 24
	movzbl	%al, %eax
	.loc 3 759 2
	testq	%rax, %rax
	je	.L234
.LBB846:
	.loc 3 763 23
	movq	_ZL11heapManager(%rip), %rax
	movq	3648(%rax), %rax
	.loc 3 763 6
	movq	%rax, -144(%rbp)
.LBB847:
	.loc 3 765 30
	movl	$32, %eax
	movl	%eax, %eax
	.loc 3 765 2
	cmpq	%rax, -144(%rbp)
	jl	.L235
.LBB848:
	.loc 3 768 20
	cmpq	$65551, -144(%rbp)
	jg	.L236
	.loc 3 768 68 discriminator 1
	movq	_ZL11heapManager(%rip), %rcx
	.loc 3 768 66 discriminator 1
	leaq	_ZL6lookup(%rip), %rdx
	movq	-144(%rbp), %rax
	addq	%rdx, %rax
	movzbl	(%rax), %eax
	movzbl	%al, %eax
	.loc 3 768 20 discriminator 1
	movslq	%eax, %rdx
	movq	%rdx, %rax
	salq	$2, %rax
	addq	%rdx, %rax
	salq	$3, %rax
	addq	%rcx, %rax
	jmp	.L237
.L236:
	.loc 3 770 94 discriminator 2
	movq	_ZL11heapManager(%rip), %rcx
	.loc 3 770 77 discriminator 2
	movl	56+_ZL10heapMaster(%rip), %eax
	.loc 3 770 42 discriminator 2
	movl	%eax, %edx
	movq	-144(%rbp), %rax
	movl	%eax, -156(%rbp)
	leaq	_ZL11bucketSizes(%rip), %rax
	movq	%rax, -104(%rbp)
	movq	%rdx, -96(%rbp)
.LBB849:
.LBB850:
	.loc 3 287 9 discriminator 2
	movq	$0, -88(%rbp)
	.loc 3 287 21 discriminator 2
	movq	-96(%rbp), %rax
	movq	%rax, -80(%rbp)
	.loc 3 288 2 discriminator 2
	jmp	.L238
.L240:
	.loc 3 289 10
	movq	-88(%rbp), %rdx
	movq	-80(%rbp), %rax
	addq	%rdx, %rax
	.loc 3 289 4
	shrq	%rax
	movq	%rax, -72(%rbp)
	.loc 3 290 37
	movq	-72(%rbp), %rax
	leaq	0(,%rax,4), %rdx
	movq	-104(%rbp), %rax
	addq	%rdx, %rax
	.loc 3 290 7
	movl	(%rax), %eax
	.loc 3 290 2
	cmpl	%eax, -156(%rbp)
	jbe	.L239
	.loc 3 291 4
	movq	-72(%rbp), %rax
	addq	$1, %rax
	movq	%rax, -88(%rbp)
	jmp	.L238
.L239:
	.loc 3 293 4
	movq	-72(%rbp), %rax
	movq	%rax, -80(%rbp)
.L238:
	.loc 3 288 12
	movq	-88(%rbp), %rax
	cmpq	-80(%rbp), %rax
	jb	.L240
	.loc 3 296 9
	movq	-88(%rbp), %rdx
.LBE850:
.LBE849:
	.loc 3 768 20
	movq	%rdx, %rax
	salq	$2, %rax
	addq	%rdx, %rax
	salq	$3, %rax
	addq	%rcx, %rax
.L237:
	.loc 3 770 96
	movq	%rax, -136(%rbp)
	.loc 3 774 44
	movq	-136(%rbp), %rax
	movq	32(%rax), %rdx
	.loc 3 774 56
	movq	-144(%rbp), %rax
	.loc 3 774 26
	cmpq	%rax, %rdx
	seta	%al
	.loc 3 774 24
	movzbl	%al, %eax
	.loc 3 774 2
	testq	%rax, %rax
	je	.L242
	.loc 3 774 90 discriminator 1
	subq	$40, -136(%rbp)
.L242:
	.loc 3 775 65
	movq	_ZL11heapManager(%rip), %rax
	.loc 3 775 20
	movq	3640(%rax), %rax
	movq	%rax, -128(%rbp)
	.loc 3 777 53
	movq	-136(%rbp), %rax
	movq	16(%rax), %rdx
	.loc 3 777 39
	movq	-128(%rbp), %rax
	movq	%rdx, (%rax)
	.loc 3 778 23
	movq	-136(%rbp), %rax
	movq	-128(%rbp), %rdx
	movq	%rdx, 16(%rax)
.L235:
.LBE848:
.LBE847:
	.loc 3 781 53
	movq	40+_ZL10heapMaster(%rip), %rax
	.loc 3 781 64
	movabsq	$-3689348814741910323, %rdx
	mulq	%rdx
	shrq	$3, %rdx
	.loc 3 781 29
	movq	-168(%rbp), %rax
	cmpq	%rax, %rdx
	cmovnb	%rdx, %rax
	movq	%rax, -64(%rbp)
	movq	$16, -56(%rbp)
	movq	-56(%rbp), %rax
	movq	%rax, -48(%rbp)
.LBB851:
.LBB852:
.LBB853:
.LBB854:
.LBB855:
	.loc 4 40 27
	movq	-48(%rbp), %rax
	subq	$1, %rax
	.loc 4 40 17
	andq	-48(%rbp), %rax
	.loc 4 40 38
	testq	%rax, %rax
	sete	%al
.LBE855:
.LBE854:
	.loc 4 56 7
	xorl	$1, %eax
	.loc 4 56 2
	testb	%al, %al
	je	.L244
.LBB856:
	.loc 4 56 95
	movl	$50, %edx
	leaq	.LC1(%rip), %rax
	movq	%rax, %rsi
	movl	$2, %edi
	call	write@PLT
	.loc 4 56 84
	movl	%eax, -152(%rbp)
	.loc 4 56 173
	call	abort@PLT
.L244:
.LBE856:
.LBE853:
	.loc 4 58 18
	movq	-64(%rbp), %rax
	negq	%rax
	movq	%rax, -40(%rbp)
	movq	-56(%rbp), %rax
	movq	%rax, -32(%rbp)
	movq	-32(%rbp), %rax
	movq	%rax, -24(%rbp)
.LBB857:
.LBB858:
.LBB859:
.LBB860:
.LBB861:
	.loc 4 40 27
	movq	-24(%rbp), %rax
	subq	$1, %rax
	.loc 4 40 17
	andq	-24(%rbp), %rax
	.loc 4 40 38
	testq	%rax, %rax
	sete	%al
.LBE861:
.LBE860:
	.loc 4 47 7
	xorl	$1, %eax
	.loc 4 47 2
	testb	%al, %al
	je	.L246
.LBB862:
	.loc 4 47 95
	movl	$50, %edx
	leaq	.LC2(%rip), %rax
	movq	%rax, %rsi
	movl	$2, %edi
	call	write@PLT
	.loc 4 47 84
	movl	%eax, -148(%rbp)
	.loc 4 47 173
	call	abort@PLT
.L246:
.LBE862:
.LBE859:
	.loc 4 49 17
	movq	-32(%rbp), %rax
	negq	%rax
	.loc 4 49 19
	andq	-40(%rbp), %rax
.LBE858:
.LBE857:
	.loc 4 58 36
	negq	%rax
.LBE852:
.LBE851:
	.loc 3 781 29
	movq	%rax, -120(%rbp)
	.loc 3 782 17
	movq	_ZL11heapManager(%rip), %rbx
	.loc 3 782 44
	movq	-120(%rbp), %rax
	movq	%rax, %rdi
	call	_ZL13master_extendm
	.loc 3 782 28
	movq	%rax, 3640(%rbx)
	.loc 3 783 17
	movq	-120(%rbp), %rax
	subq	-168(%rbp), %rax
	.loc 3 783 6
	movq	%rax, -144(%rbp)
.L234:
.LBE846:
.LBE845:
	.loc 3 786 65
	movq	_ZL11heapManager(%rip), %rax
	.loc 3 786 20
	movq	3640(%rax), %rax
	movq	%rax, -112(%rbp)
	.loc 3 787 17
	movq	_ZL11heapManager(%rip), %rax
	.loc 3 787 31
	movq	-144(%rbp), %rdx
	.loc 3 787 29
	movq	%rdx, 3648(%rax)
	.loc 3 788 56
	movq	_ZL11heapManager(%rip), %rax
	movq	3640(%rax), %rcx
	.loc 3 788 17
	movq	_ZL11heapManager(%rip), %rax
	.loc 3 788 67
	movq	-168(%rbp), %rdx
	addq	%rcx, %rdx
	.loc 3 788 28
	movq	%rdx, 3640(%rax)
	.loc 3 790 9
	movq	-112(%rbp), %rax
	.loc 3 791 2
	movq	-8(%rbp), %rbx
	leave
	.cfi_def_cfa 7, 8
	ret
	.cfi_endproc
.LFE2865:
	.size	_ZL14manager_extendm, .-_ZL14manager_extendm
	.section	.rodata
	.align 8
.LC24:
	.string	"/u0/usystem/software/u++-7.0.0/src/kernel/uHeapLmmm.cc:831: Assertion \"heapManager\" failed.\n"
	.align 8
.LC25:
	.string	"/u0/usystem/software/u++-7.0.0/src/kernel/uHeapLmmm.cc:853: Assertion \"freeHead <= &heap->freeLists[heapMaster.maxBucketsUsed]\" failed.\n"
	.align 8
.LC26:
	.string	"/u0/usystem/software/u++-7.0.0/src/kernel/uHeapLmmm.cc:854: Assertion \"tsize <= freeHead->blockSize\" failed.\n"
	.align 8
.LC27:
	.string	"./uC++.h:545: Assertion \"uKernelModuleBoot.disableInt && uKernelModuleBoot.disableIntCnt > 0\" failed.\n"
	.align 8
.LC28:
	.string	"./uC++.h:553: Assertion \"( ! uKernelModuleBoot.disableInt && uKernelModuleBoot.disableIntCnt == 0 ) || ( uKernelModuleBoot.disableInt && uKernelModuleBoot.disableIntCnt > 0 )\" failed.\n"
	.align 8
.LC29:
	.string	"attempt to allocate large object (> %zu) of size %zu bytes and mmap failed with errno %d."
	.align 8
.LC30:
	.string	"/u0/usystem/software/u++-7.0.0/src/kernel/uHeapLmmm.cc:938: Assertion \"((uintptr_t)addr & ((16) - 1)) == 0\" failed.\n"
	.align 8
.LC31:
	.string	"%p = Malloc( %zu ) (allocated %zu)\n"
	.align 8
.LC32:
	.ascii	"/u0/usystem/software/u++-7.0.0/src"
	.string	"/kernel/uHeapLmmm.cc:949: Assertion \"( ! uKernelModule::uKernelModuleBoot.disableInt && uKernelModule::uKernelModuleBoot.disableIntCnt == 0 ) || ( uKernelModule::uKernelModuleBoot.disableInt && uKernelModule::uKernelModuleBoot.disableIntCnt > 0 )\" failed.\n"
	.section	text_nopreempt,"ax",@progbits
	.type	_ZL8doMallocm, @function
_ZL8doMallocm:
.LFB2866:
	.loc 3 828 41
	.cfi_startproc
	endbr64
	pushq	%rbp
	.cfi_def_cfa_offset 16
	.cfi_offset 6, -16
	movq	%rsp, %rbp
	.cfi_def_cfa_register 6
	subq	$368, %rsp
	movq	%rdi, -360(%rbp)
	.loc 3 828 41
	movq	%fs:40, %rax
	movq	%rax, -8(%rbp)
	xorl	%eax, %eax
	.loc 3 829 26
	movzbl	_ZN13uKernelModule23kernelModuleInitializedE(%rip), %eax
	xorl	$1, %eax
	.loc 3 829 24
	movzbl	%al, %eax
	.loc 3 829 2
	testq	%rax, %rax
	je	.L251
	.loc 3 829 112 discriminator 1
	call	_ZN13uKernelModule7startupEv@PLT
	.loc 3 829 134 discriminator 1
	call	_Z15heapManagerCtorv
.L251:
	.loc 3 829 168 discriminator 3
	cmpq	$0, -360(%rbp)
	sete	%al
	.loc 3 829 166 discriminator 3
	movzbl	%al, %eax
	.loc 3 829 144 discriminator 3
	testq	%rax, %rax
	jne	.L252
	.loc 3 829 214 discriminator 5
	cmpq	$-17, -360(%rbp)
	seta	%al
	.loc 3 829 212 discriminator 5
	movzbl	%al, %eax
	.loc 3 829 192 discriminator 5
	testq	%rax, %rax
	je	.L253
.L252:
	.loc 3 829 54 discriminator 6
	movl	$0, %eax
	jmp	.L254
.L253:
.LBB863:
	.loc 3 831 7
	movq	_ZL11heapManager(%rip), %rax
	.loc 3 831 2
	testq	%rax, %rax
	jne	.L255
.LBB864:
	.loc 3 831 70 discriminator 1
	movl	$92, %edx
	leaq	.LC24(%rip), %rax
	movq	%rax, %rsi
	movl	$2, %edi
	call	write@PLT
	.loc 3 831 59 discriminator 1
	movl	%eax, -324(%rbp)
	.loc 3 831 329 discriminator 1
	call	abort@PLT
.L255:
.LBE864:
.LBE863:
	.loc 3 836 9
	movq	-360(%rbp), %rax
	addq	$16, %rax
	movq	%rax, -256(%rbp)
	.loc 3 837 9
	movq	_ZL11heapManager(%rip), %rax
	movq	%rax, -248(%rbp)
	.loc 3 844 23
	movq	-248(%rbp), %rax
	movq	3672(%rax), %rax
	movq	%rax, %rdx
	movq	-360(%rbp), %rax
	addq	%rdx, %rax
	movq	%rax, %rdx
	movq	-248(%rbp), %rax
	movq	%rdx, 3672(%rax)
.LBB865:
	.loc 3 846 53
	movq	48+_ZL10heapMaster(%rip), %rax
	.loc 3 846 26
	cmpq	%rax, -256(%rbp)
	setb	%al
	.loc 3 846 24
	movzbl	%al, %eax
	.loc 3 846 2
	testq	%rax, %rax
	je	.L256
.LBB866:
	.loc 3 849 21
	cmpq	$65551, -256(%rbp)
	setbe	%al
	.loc 3 849 19
	movzbl	%al, %eax
	.loc 3 849 55
	testq	%rax, %rax
	je	.L257
	.loc 3 849 96 discriminator 1
	leaq	_ZL6lookup(%rip), %rdx
	movq	-256(%rbp), %rax
	addq	%rdx, %rax
	movzbl	(%rax), %eax
	movzbl	%al, %eax
	.loc 3 849 55 discriminator 1
	movslq	%eax, %rdx
	movq	%rdx, %rax
	salq	$2, %rax
	addq	%rdx, %rax
	salq	$3, %rax
	movq	-248(%rbp), %rdx
	addq	%rdx, %rax
	jmp	.L258
.L257:
	.loc 3 851 96 discriminator 2
	movq	_ZL11heapManager(%rip), %rcx
	.loc 3 851 79 discriminator 2
	movl	56+_ZL10heapMaster(%rip), %eax
	.loc 3 851 42 discriminator 2
	movl	%eax, %edx
	movq	-256(%rbp), %rax
	movl	%eax, -320(%rbp)
	leaq	_ZL11bucketSizes(%rip), %rax
	movq	%rax, -224(%rbp)
	movq	%rdx, -216(%rbp)
.LBB867:
.LBB868:
	.loc 3 287 9 discriminator 2
	movq	$0, -208(%rbp)
	.loc 3 287 21 discriminator 2
	movq	-216(%rbp), %rax
	movq	%rax, -200(%rbp)
	.loc 3 288 2 discriminator 2
	jmp	.L259
.L261:
	.loc 3 289 10
	movq	-208(%rbp), %rdx
	movq	-200(%rbp), %rax
	addq	%rdx, %rax
	.loc 3 289 4
	shrq	%rax
	movq	%rax, -192(%rbp)
	.loc 3 290 37
	movq	-192(%rbp), %rax
	leaq	0(,%rax,4), %rdx
	movq	-224(%rbp), %rax
	addq	%rdx, %rax
	.loc 3 290 7
	movl	(%rax), %eax
	.loc 3 290 2
	cmpl	%eax, -320(%rbp)
	jbe	.L260
	.loc 3 291 4
	movq	-192(%rbp), %rax
	addq	$1, %rax
	movq	%rax, -208(%rbp)
	jmp	.L259
.L260:
	.loc 3 293 4
	movq	-192(%rbp), %rax
	movq	%rax, -200(%rbp)
.L259:
	.loc 3 288 12
	movq	-208(%rbp), %rax
	cmpq	-200(%rbp), %rax
	jb	.L261
	.loc 3 296 9
	movq	-208(%rbp), %rdx
.LBE868:
.LBE867:
	.loc 3 849 55
	movq	%rdx, %rax
	salq	$2, %rax
	addq	%rdx, %rax
	salq	$3, %rax
	addq	%rcx, %rax
.L258:
	.loc 3 851 98
	movq	%rax, -240(%rbp)
.LBB869:
	.loc 3 853 49
	movl	56+_ZL10heapMaster(%rip), %eax
	.loc 3 853 14
	movl	%eax, %edx
	movq	%rdx, %rax
	salq	$2, %rax
	addq	%rdx, %rax
	salq	$3, %rax
	movq	-248(%rbp), %rdx
	addq	%rdx, %rax
	.loc 3 853 2
	cmpq	%rax, -240(%rbp)
	jbe	.L263
.LBB870:
	.loc 3 853 70 discriminator 1
	movl	$136, %edx
	leaq	.LC25(%rip), %rax
	movq	%rax, %rsi
	movl	$2, %edi
	call	write@PLT
	.loc 3 853 59 discriminator 1
	movl	%eax, -340(%rbp)
	.loc 3 853 417 discriminator 1
	call	abort@PLT
.L263:
.LBE870:
.LBE869:
.LBB871:
	.loc 3 854 23
	movq	-240(%rbp), %rax
	movq	32(%rax), %rax
	.loc 3 854 2
	cmpq	%rax, -256(%rbp)
	jbe	.L264
.LBB872:
	.loc 3 854 70 discriminator 1
	movl	$109, %edx
	leaq	.LC26(%rip), %rax
	movq	%rax, %rsi
	movl	$2, %edi
	call	write@PLT
	.loc 3 854 59 discriminator 1
	movl	%eax, -344(%rbp)
	.loc 3 854 363 discriminator 1
	call	abort@PLT
.L264:
.LBE872:
.LBE871:
	.loc 3 856 8
	movq	-240(%rbp), %rax
	movq	32(%rax), %rax
	movq	%rax, -256(%rbp)
	.loc 3 863 8
	movq	-240(%rbp), %rax
	movq	16(%rax), %rax
	movq	%rax, -264(%rbp)
	.loc 3 864 26
	cmpq	$0, -264(%rbp)
	sete	%al
	.loc 3 864 24
	movzbl	%al, %eax
	.loc 3 864 2
	testq	%rax, %rax
	je	.L265
	.loc 3 869 36
	movq	-240(%rbp), %rax
	movq	%rax, -136(%rbp)
.LBB873:
.LBB874:
	.loc 2 128 94
	movq	-136(%rbp), %rax
	movq	%rax, -152(%rbp)
	movq	-152(%rbp), %rax
	movq	%rax, -144(%rbp)
	movb	$0, -345(%rbp)
.LBE874:
.LBE873:
.LBB875:
.LBB876:
.LBB877:
.LBB878:
	.loc 2 678 7
	movq	-144(%rbp), %rax
	movl	(%rax), %eax
	.loc 2 678 2
	testl	%eax, %eax
	je	.L267
	.loc 2 679 8
	movq	-144(%rbp), %rax
	movq	%rax, %rsi
	leaq	.LC10(%rip), %rax
	movq	%rax, %rdi
	movl	$0, %eax
	call	_Z5abortPKcz@PLT
.L267:
.LBB879:
.LBB880:
.LBB881:
	.loc 2 557 26
	movzbl	32+_ZN13uKernelModule17uKernelModuleBootE(%rip), %eax
	.loc 2 557 7
	testb	%al, %al
	jne	.L268
	.loc 2 557 64
	movl	36+_ZN13uKernelModule17uKernelModuleBootE(%rip), %eax
	.loc 2 557 41
	testl	%eax, %eax
	je	.L269
.L268:
	.loc 2 557 114
	movzbl	32+_ZN13uKernelModule17uKernelModuleBootE(%rip), %eax
	xorl	$1, %eax
	.loc 2 557 7
	testb	%al, %al
	jne	.L270
	.loc 2 557 152
	movl	36+_ZN13uKernelModule17uKernelModuleBootE(%rip), %eax
	.loc 2 557 129
	testl	%eax, %eax
	jg	.L269
.L270:
	.loc 2 557 7
	movl	$1, %eax
	jmp	.L271
.L269:
	movl	$0, %eax
.L271:
	.loc 2 557 2
	testb	%al, %al
	je	.L272
.LBB882:
	.loc 2 557 70
	movl	$200, %edx
	leaq	.LC11(%rip), %rax
	movq	%rax, %rsi
	movl	$2, %edi
	call	write@PLT
	.loc 2 557 59
	movl	%eax, -296(%rbp)
	.loc 2 557 545
	call	abort@PLT
.L272:
.LBE882:
.LBE881:
	.loc 2 559 37
	movb	$1, 32+_ZN13uKernelModule17uKernelModuleBootE(%rip)
	.loc 2 560 40
	movl	36+_ZN13uKernelModule17uKernelModuleBootE(%rip), %eax
	addl	$1, %eax
	movl	%eax, 36+_ZN13uKernelModule17uKernelModuleBootE(%rip)
.LBB883:
	.loc 2 562 22
	movzbl	32+_ZN13uKernelModule17uKernelModuleBootE(%rip), %eax
	xorl	$1, %eax
	.loc 2 562 7
	testb	%al, %al
	jne	.L273
	.loc 2 562 60
	movl	36+_ZN13uKernelModule17uKernelModuleBootE(%rip), %eax
	.loc 2 562 7
	testl	%eax, %eax
	jg	.L274
.L273:
	movl	$1, %eax
	jmp	.L275
.L274:
	movl	$0, %eax
.L275:
	.loc 2 562 2
	testb	%al, %al
	je	.L352
.LBB884:
	.loc 2 562 70
	movl	$110, %edx
	leaq	.LC12(%rip), %rax
	movq	%rax, %rsi
	movl	$2, %edi
	call	write@PLT
	.loc 2 562 59
	movl	%eax, -292(%rbp)
	.loc 2 562 365
	call	abort@PLT
.L352:
.LBE884:
.LBE883:
	.loc 2 563 2
	nop
.LBE880:
.LBE879:
	.loc 2 716 8
	movq	-144(%rbp), %rax
	movl	$1, (%rax)
	.loc 2 718 2
	nop
.LBE878:
.LBE877:
	.loc 2 744 2
	.loc 2 745 2
	nop
.LBE876:
.LBE875:
	.loc 3 870 8
	movq	-240(%rbp), %rax
	movq	8(%rax), %rax
	movq	%rax, -264(%rbp)
	.loc 3 871 25
	movq	-240(%rbp), %rax
	movq	$0, 8(%rax)
	.loc 3 872 36
	movq	-240(%rbp), %rax
	movq	%rax, -160(%rbp)
.LBB885:
.LBB886:
	.loc 2 128 94
	movq	-160(%rbp), %rax
	movq	%rax, -184(%rbp)
.LBE886:
.LBE885:
.LBB887:
.LBB888:
	.loc 2 770 2
	movq	-184(%rbp), %rax
	movq	%rax, -176(%rbp)
	movb	$0, -346(%rbp)
.LBB889:
.LBB890:
.LBB891:
	.loc 2 721 2
	movq	-176(%rbp), %rax
	movl	(%rax), %eax
	.loc 2 721 2
	testl	%eax, %eax
	jne	.L278
.LBB892:
	.loc 2 721 70
	movl	$45, %edx
	leaq	.LC13(%rip), %rax
	movq	%rax, %rsi
	movl	$2, %edi
	call	write@PLT
	.loc 2 721 59
	movl	%eax, -316(%rbp)
	.loc 2 721 235
	call	abort@PLT
.L278:
.LBE892:
.LBE891:
	.loc 2 722 15
	movq	-176(%rbp), %rax
	movq	%rax, -168(%rbp)
.LBB893:
.LBB894:
	.loc 5 81 17
	movq	-168(%rbp), %rax
	movl	$0, %edx
	movb	%dl, (%rax)
	.loc 5 82 2
	nop
.LBE894:
.LBE893:
	.loc 2 723 2
	cmpb	$0, -346(%rbp)
	je	.L279
.LBB895:
.LBB896:
.LBB897:
	.loc 2 581 22
	movzbl	32+_ZN13uKernelModule17uKernelModuleBootE(%rip), %eax
	xorl	$1, %eax
	.loc 2 581 7
	testb	%al, %al
	jne	.L280
	.loc 2 581 60
	movl	36+_ZN13uKernelModule17uKernelModuleBootE(%rip), %eax
	.loc 2 581 7
	testl	%eax, %eax
	jg	.L281
.L280:
	movl	$1, %eax
	jmp	.L282
.L281:
	movl	$0, %eax
.L282:
	.loc 2 581 2
	testb	%al, %al
	je	.L283
.LBB898:
	.loc 2 581 70
	movl	$110, %edx
	leaq	.LC14(%rip), %rax
	movq	%rax, %rsi
	movl	$2, %edi
	call	write@PLT
	.loc 2 581 59
	movl	%eax, -312(%rbp)
	.loc 2 581 365
	call	abort@PLT
.L283:
.LBE898:
.LBE897:
	.loc 2 583 40
	movl	36+_ZN13uKernelModule17uKernelModuleBootE(%rip), %eax
	subl	$1, %eax
	movl	%eax, 36+_ZN13uKernelModule17uKernelModuleBootE(%rip)
	.loc 2 584 52
	movl	36+_ZN13uKernelModule17uKernelModuleBootE(%rip), %eax
	.loc 2 584 26
	testl	%eax, %eax
	sete	%al
	.loc 2 584 24
	movzbl	%al, %eax
	testq	%rax, %rax
	setne	%al
	.loc 2 584 2
	testb	%al, %al
	je	.L284
	.loc 2 585 37
	movb	$0, 32+_ZN13uKernelModule17uKernelModuleBootE(%rip)
.L284:
.LBB899:
	.loc 2 588 26
	movzbl	32+_ZN13uKernelModule17uKernelModuleBootE(%rip), %eax
	.loc 2 588 7
	testb	%al, %al
	jne	.L285
	.loc 2 588 64
	movl	36+_ZN13uKernelModule17uKernelModuleBootE(%rip), %eax
	.loc 2 588 41
	testl	%eax, %eax
	je	.L286
.L285:
	.loc 2 588 114
	movzbl	32+_ZN13uKernelModule17uKernelModuleBootE(%rip), %eax
	xorl	$1, %eax
	.loc 2 588 7
	testb	%al, %al
	jne	.L287
	.loc 2 588 152
	movl	36+_ZN13uKernelModule17uKernelModuleBootE(%rip), %eax
	.loc 2 588 129
	testl	%eax, %eax
	jg	.L286
.L287:
	.loc 2 588 7
	movl	$1, %eax
	jmp	.L288
.L286:
	movl	$0, %eax
.L288:
	.loc 2 588 2
	testb	%al, %al
	je	.L353
.LBB900:
	.loc 2 588 70
	movl	$200, %edx
	leaq	.LC15(%rip), %rax
	movq	%rax, %rsi
	movl	$2, %edi
	call	write@PLT
	.loc 2 588 59
	movl	%eax, -308(%rbp)
	.loc 2 588 545
	call	abort@PLT
.L279:
.LBE900:
.LBE899:
.LBE896:
.LBE895:
.LBB902:
.LBB903:
.LBB904:
	.loc 2 566 22
	movzbl	32+_ZN13uKernelModule17uKernelModuleBootE(%rip), %eax
	xorl	$1, %eax
	.loc 2 566 7
	testb	%al, %al
	jne	.L291
	.loc 2 566 60
	movl	36+_ZN13uKernelModule17uKernelModuleBootE(%rip), %eax
	.loc 2 566 7
	testl	%eax, %eax
	jg	.L292
.L291:
	movl	$1, %eax
	jmp	.L293
.L292:
	movl	$0, %eax
.L293:
	.loc 2 566 2
	testb	%al, %al
	je	.L294
.LBB905:
	.loc 2 566 70
	movl	$110, %edx
	leaq	.LC16(%rip), %rax
	movq	%rax, %rsi
	movl	$2, %edi
	call	write@PLT
	.loc 2 566 59
	movl	%eax, -304(%rbp)
	.loc 2 566 365
	call	abort@PLT
.L294:
.LBE905:
.LBE904:
	.loc 2 568 40
	movl	36+_ZN13uKernelModule17uKernelModuleBootE(%rip), %eax
	subl	$1, %eax
	movl	%eax, 36+_ZN13uKernelModule17uKernelModuleBootE(%rip)
	.loc 2 569 52
	movl	36+_ZN13uKernelModule17uKernelModuleBootE(%rip), %eax
	.loc 2 569 26
	testl	%eax, %eax
	sete	%al
	.loc 2 569 24
	movzbl	%al, %eax
	testq	%rax, %rax
	setne	%al
	.loc 2 569 2
	testb	%al, %al
	je	.L295
	.loc 2 570 37
	movb	$0, 32+_ZN13uKernelModule17uKernelModuleBootE(%rip)
	.loc 2 572 52
	movzbl	41+_ZN13uKernelModule17uKernelModuleBootE(%rip), %eax
	.loc 2 572 24
	movzbl	%al, %eax
	testq	%rax, %rax
	je	.L296
	.loc 2 572 87
	movzbl	40+_ZN13uKernelModule17uKernelModuleBootE(%rip), %eax
	xorl	$1, %eax
	.loc 2 572 24
	movzbl	%al, %eax
	testq	%rax, %rax
	je	.L296
	movl	$1, %eax
	jmp	.L297
.L296:
	movl	$0, %eax
.L297:
	testb	%al, %al
	je	.L298
	.loc 2 572 125
	movzbl	24+_ZN13uKernelModule17uKernelModuleBootE(%rip), %eax
	xorl	$1, %eax
	.loc 2 572 24
	movzbl	%al, %eax
	testq	%rax, %rax
	je	.L298
	movl	$1, %eax
	jmp	.L299
.L298:
	movl	$0, %eax
.L299:
	movzbl	%al, %eax
	testq	%rax, %rax
	setne	%al
	.loc 2 572 2
	testb	%al, %al
	je	.L295
	.loc 2 573 14
	movl	$0, %edi
	call	_ZN13uKernelModule11rollForwardEb@PLT
.L295:
.LBB906:
	.loc 2 577 26
	movzbl	32+_ZN13uKernelModule17uKernelModuleBootE(%rip), %eax
	.loc 2 577 7
	testb	%al, %al
	jne	.L300
	.loc 2 577 64
	movl	36+_ZN13uKernelModule17uKernelModuleBootE(%rip), %eax
	.loc 2 577 41
	testl	%eax, %eax
	je	.L301
.L300:
	.loc 2 577 114
	movzbl	32+_ZN13uKernelModule17uKernelModuleBootE(%rip), %eax
	xorl	$1, %eax
	.loc 2 577 7
	testb	%al, %al
	jne	.L302
	.loc 2 577 152
	movl	36+_ZN13uKernelModule17uKernelModuleBootE(%rip), %eax
	.loc 2 577 129
	testl	%eax, %eax
	jg	.L301
.L302:
	.loc 2 577 7
	movl	$1, %eax
	jmp	.L303
.L301:
	movl	$0, %eax
.L303:
	.loc 2 577 2
	testb	%al, %al
	je	.L354
.LBB907:
	.loc 2 577 70
	movl	$200, %edx
	leaq	.LC17(%rip), %rax
	movq	%rax, %rsi
	movl	$2, %edi
	call	write@PLT
	.loc 2 577 59
	movl	%eax, -300(%rbp)
	.loc 2 577 545
	call	abort@PLT
.L353:
.LBE907:
.LBE906:
.LBE903:
.LBE902:
.LBB909:
.LBB901:
	.loc 2 589 2
	nop
	jmp	.L290
.L354:
.LBE901:
.LBE909:
.LBB910:
.LBB908:
	.loc 2 578 2
	nop
.L290:
.LBE908:
.LBE910:
	.loc 2 728 2
	nop
.LBE890:
.LBE889:
	.loc 2 772 2
	nop
.LBE888:
.LBE887:
	.loc 3 877 26
	cmpq	$0, -264(%rbp)
	sete	%al
	.loc 3 877 24
	movzbl	%al, %eax
	.loc 3 877 2
	testq	%rax, %rax
	je	.L305
.LBB911:
.LBB912:
	.loc 2 527 33
	movb	$1, 24+_ZN13uKernelModule17uKernelModuleBootE(%rip)
	.loc 2 528 36
	movl	28+_ZN13uKernelModule17uKernelModuleBootE(%rip), %eax
	addl	$1, %eax
	movl	%eax, 28+_ZN13uKernelModule17uKernelModuleBootE(%rip)
	.loc 2 529 2
	nop
.LBE912:
.LBE911:
	.loc 3 881 47
	movq	-256(%rbp), %rax
	movq	%rax, %rdi
	call	_ZL14manager_extendm
	movq	%rax, -264(%rbp)
.LBB913:
.LBB914:
.LBB915:
	.loc 2 545 22
	movzbl	24+_ZN13uKernelModule17uKernelModuleBootE(%rip), %eax
	xorl	$1, %eax
	.loc 2 545 7
	testb	%al, %al
	jne	.L306
	.loc 2 545 56
	movl	28+_ZN13uKernelModule17uKernelModuleBootE(%rip), %eax
	.loc 2 545 7
	testl	%eax, %eax
	jg	.L307
.L306:
	movl	$1, %eax
	jmp	.L308
.L307:
	movl	$0, %eax
.L308:
	.loc 2 545 2
	testb	%al, %al
	je	.L309
.LBB916:
	.loc 2 545 70
	movl	$102, %edx
	leaq	.LC27(%rip), %rax
	movq	%rax, %rsi
	movl	$2, %edi
	call	write@PLT
	.loc 2 545 59
	movl	%eax, -288(%rbp)
	.loc 2 545 349
	call	abort@PLT
.L309:
.LBE916:
.LBE915:
	.loc 2 547 36
	movl	28+_ZN13uKernelModule17uKernelModuleBootE(%rip), %eax
	subl	$1, %eax
	movl	%eax, 28+_ZN13uKernelModule17uKernelModuleBootE(%rip)
	.loc 2 548 52
	movl	28+_ZN13uKernelModule17uKernelModuleBootE(%rip), %eax
	.loc 2 548 26
	testl	%eax, %eax
	sete	%al
	.loc 2 548 24
	movzbl	%al, %eax
	testq	%rax, %rax
	setne	%al
	.loc 2 548 2
	testb	%al, %al
	je	.L310
	.loc 2 549 33
	movb	$0, 24+_ZN13uKernelModule17uKernelModuleBootE(%rip)
.L310:
.LBB917:
	.loc 2 553 26
	movzbl	24+_ZN13uKernelModule17uKernelModuleBootE(%rip), %eax
	.loc 2 553 7
	testb	%al, %al
	jne	.L311
	.loc 2 553 60
	movl	28+_ZN13uKernelModule17uKernelModuleBootE(%rip), %eax
	.loc 2 553 37
	testl	%eax, %eax
	je	.L312
.L311:
	.loc 2 553 106
	movzbl	24+_ZN13uKernelModule17uKernelModuleBootE(%rip), %eax
	xorl	$1, %eax
	.loc 2 553 7
	testb	%al, %al
	jne	.L313
	.loc 2 553 140
	movl	28+_ZN13uKernelModule17uKernelModuleBootE(%rip), %eax
	.loc 2 553 117
	testl	%eax, %eax
	jg	.L312
.L313:
	.loc 2 553 7
	movl	$1, %eax
	jmp	.L314
.L312:
	movl	$0, %eax
.L314:
	.loc 2 553 2
	testb	%al, %al
	je	.L355
.LBB918:
	.loc 2 553 70
	movl	$184, %edx
	leaq	.LC28(%rip), %rax
	movq	%rax, %rsi
	movl	$2, %edi
	call	write@PLT
	.loc 2 553 59
	movl	%eax, -284(%rbp)
	.loc 2 553 513
	call	abort@PLT
.L355:
.LBE918:
.LBE917:
	.loc 2 554 2
	nop
.LBE914:
.LBE913:
	.loc 3 885 7
	movq	$0, -248(%rbp)
	.loc 3 888 53
	movq	-256(%rbp), %rax
	subq	$16, %rax
	.loc 3 888 82
	movl	$1024, %edx
	cmpq	%rdx, %rax
	cmova	%rdx, %rax
	.loc 3 888 20
	movq	-264(%rbp), %rdx
	leaq	16(%rdx), %rcx
	.loc 3 888 9
	movq	%rax, %rdx
	movl	$-1, %esi
	movq	%rcx, %rdi
	call	memset@PLT
	jmp	.L316
.L305:
	.loc 3 896 7
	movq	$0, -248(%rbp)
	.loc 3 898 57
	movq	-264(%rbp), %rax
	movq	(%rax), %rdx
	.loc 3 898 23
	movq	-240(%rbp), %rax
	movq	%rdx, 16(%rax)
	jmp	.L316
.L265:
	.loc 3 903 57
	movq	-264(%rbp), %rax
	movq	(%rax), %rdx
	.loc 3 903 23
	movq	-240(%rbp), %rax
	movq	%rdx, 16(%rax)
.L316:
	.loc 3 906 39
	movq	-264(%rbp), %rax
	movq	-240(%rbp), %rdx
	movq	%rdx, (%rax)
.LBE866:
	jmp	.L317
.L256:
	.loc 3 908 17
	movq	32+_ZL10heapMaster(%rip), %rax
	.loc 3 908 2
	notq	%rax
	.loc 3 908 26
	cmpq	%rax, -360(%rbp)
	seta	%al
	.loc 3 908 24
	movzbl	%al, %eax
	.loc 3 908 2
	testq	%rax, %rax
	je	.L318
	.loc 3 908 43 discriminator 1
	movl	$0, %eax
	jmp	.L254
.L318:
	.loc 3 909 19
	movq	32+_ZL10heapMaster(%rip), %rax
	movq	-256(%rbp), %rdx
	movq	%rdx, -128(%rbp)
	movq	%rax, -120(%rbp)
	movq	-120(%rbp), %rax
	movq	%rax, -112(%rbp)
.LBB919:
.LBB920:
.LBB921:
.LBB922:
.LBB923:
	.loc 4 40 27
	movq	-112(%rbp), %rax
	subq	$1, %rax
	.loc 4 40 17
	andq	-112(%rbp), %rax
	.loc 4 40 38
	testq	%rax, %rax
	sete	%al
.LBE923:
.LBE922:
	.loc 4 56 7
	xorl	$1, %eax
	.loc 4 56 2
	testb	%al, %al
	je	.L320
.LBB924:
	.loc 4 56 95
	movl	$50, %edx
	leaq	.LC1(%rip), %rax
	movq	%rax, %rsi
	movl	$2, %edi
	call	write@PLT
	.loc 4 56 84
	movl	%eax, -272(%rbp)
	.loc 4 56 173
	call	abort@PLT
.L320:
.LBE924:
.LBE921:
	.loc 4 58 18
	movq	-128(%rbp), %rax
	negq	%rax
	movq	%rax, -104(%rbp)
	movq	-120(%rbp), %rax
	movq	%rax, -96(%rbp)
	movq	-96(%rbp), %rax
	movq	%rax, -88(%rbp)
.LBB925:
.LBB926:
.LBB927:
.LBB928:
.LBB929:
	.loc 4 40 27
	movq	-88(%rbp), %rax
	subq	$1, %rax
	.loc 4 40 17
	andq	-88(%rbp), %rax
	.loc 4 40 38
	testq	%rax, %rax
	sete	%al
.LBE929:
.LBE928:
	.loc 4 47 7
	xorl	$1, %eax
	.loc 4 47 2
	testb	%al, %al
	je	.L322
.LBB930:
	.loc 4 47 95
	movl	$50, %edx
	leaq	.LC2(%rip), %rax
	movq	%rax, %rsi
	movl	$2, %edi
	call	write@PLT
	.loc 4 47 84
	movl	%eax, -268(%rbp)
	.loc 4 47 173
	call	abort@PLT
.L322:
.LBE930:
.LBE927:
	.loc 4 49 17
	movq	-96(%rbp), %rax
	negq	%rax
	.loc 4 49 19
	andq	-104(%rbp), %rax
.LBE926:
.LBE925:
	.loc 4 58 36
	negq	%rax
.LBE920:
.LBE919:
	.loc 3 909 19
	movq	%rax, -256(%rbp)
.LBB931:
.LBB932:
	.loc 2 527 33
	movb	$1, 24+_ZN13uKernelModule17uKernelModuleBootE(%rip)
	.loc 2 528 36
	movl	28+_ZN13uKernelModule17uKernelModuleBootE(%rip), %eax
	addl	$1, %eax
	movl	%eax, 28+_ZN13uKernelModule17uKernelModuleBootE(%rip)
	.loc 2 529 2
	nop
.LBE932:
.LBE931:
	.loc 3 918 40
	movq	-256(%rbp), %rax
	movl	$0, %r9d
	movl	$-1, %r8d
	movl	$34, %ecx
	movl	$3, %edx
	movq	%rax, %rsi
	movl	$0, %edi
	call	mmap@PLT
	movq	%rax, -264(%rbp)
.LBB933:
.LBB934:
.LBB935:
	.loc 2 545 22
	movzbl	24+_ZN13uKernelModule17uKernelModuleBootE(%rip), %eax
	xorl	$1, %eax
	.loc 2 545 7
	testb	%al, %al
	jne	.L325
	.loc 2 545 56
	movl	28+_ZN13uKernelModule17uKernelModuleBootE(%rip), %eax
	.loc 2 545 7
	testl	%eax, %eax
	jg	.L326
.L325:
	movl	$1, %eax
	jmp	.L327
.L326:
	movl	$0, %eax
.L327:
	.loc 2 545 2
	testb	%al, %al
	je	.L328
.LBB936:
	.loc 2 545 70
	movl	$102, %edx
	leaq	.LC27(%rip), %rax
	movq	%rax, %rsi
	movl	$2, %edi
	call	write@PLT
	.loc 2 545 59
	movl	%eax, -280(%rbp)
	.loc 2 545 349
	call	abort@PLT
.L328:
.LBE936:
.LBE935:
	.loc 2 547 36
	movl	28+_ZN13uKernelModule17uKernelModuleBootE(%rip), %eax
	subl	$1, %eax
	movl	%eax, 28+_ZN13uKernelModule17uKernelModuleBootE(%rip)
	.loc 2 548 52
	movl	28+_ZN13uKernelModule17uKernelModuleBootE(%rip), %eax
	.loc 2 548 26
	testl	%eax, %eax
	sete	%al
	.loc 2 548 24
	movzbl	%al, %eax
	testq	%rax, %rax
	setne	%al
	.loc 2 548 2
	testb	%al, %al
	je	.L329
	.loc 2 549 33
	movb	$0, 24+_ZN13uKernelModule17uKernelModuleBootE(%rip)
.L329:
.LBB937:
	.loc 2 553 26
	movzbl	24+_ZN13uKernelModule17uKernelModuleBootE(%rip), %eax
	.loc 2 553 7
	testb	%al, %al
	jne	.L330
	.loc 2 553 60
	movl	28+_ZN13uKernelModule17uKernelModuleBootE(%rip), %eax
	.loc 2 553 37
	testl	%eax, %eax
	je	.L331
.L330:
	.loc 2 553 106
	movzbl	24+_ZN13uKernelModule17uKernelModuleBootE(%rip), %eax
	xorl	$1, %eax
	.loc 2 553 7
	testb	%al, %al
	jne	.L332
	.loc 2 553 140
	movl	28+_ZN13uKernelModule17uKernelModuleBootE(%rip), %eax
	.loc 2 553 117
	testl	%eax, %eax
	jg	.L331
.L332:
	.loc 2 553 7
	movl	$1, %eax
	jmp	.L333
.L331:
	movl	$0, %eax
.L333:
	.loc 2 553 2
	testb	%al, %al
	je	.L356
.LBB938:
	.loc 2 553 70
	movl	$184, %edx
	leaq	.LC28(%rip), %rax
	movq	%rax, %rsi
	movl	$2, %edi
	call	write@PLT
	.loc 2 553 59
	movl	%eax, -276(%rbp)
	.loc 2 553 513
	call	abort@PLT
.L356:
.LBE938:
.LBE937:
	.loc 2 554 2
	nop
.LBE934:
.LBE933:
	.loc 3 922 7
	movq	$0, -248(%rbp)
	.loc 3 924 26
	cmpq	$-1, -264(%rbp)
	sete	%al
	.loc 3 924 24
	movzbl	%al, %eax
	.loc 3 924 2
	testq	%rax, %rax
	je	.L335
	.loc 3 925 23
	call	__errno_location@PLT
	.loc 3 925 4
	movl	(%rax), %eax
	.loc 3 925 2
	cmpl	$12, %eax
	jne	.L336
	.loc 3 925 10 discriminator 1
	movq	-256(%rbp), %rax
	movq	%rax, %rsi
	leaq	.LC8(%rip), %rax
	movq	%rax, %rdi
	movl	$0, %eax
	call	_Z5abortPKcz@PLT
.L336:
	.loc 3 927 23
	call	__errno_location@PLT
	.loc 3 927 8
	movl	(%rax), %ecx
	movq	48+_ZL10heapMaster(%rip), %rdx
	movq	-360(%rbp), %rax
	movq	%rax, %rsi
	leaq	.LC29(%rip), %rax
	movq	%rax, %rdi
	movl	$0, %eax
	call	_Z5abortPKcz@PLT
.L335:
	.loc 3 929 58
	movq	-256(%rbp), %rax
	orq	$4, %rax
	movq	%rax, %rdx
	.loc 3 929 44
	movq	-264(%rbp), %rax
	movq	%rdx, (%rax)
	.loc 3 933 53
	movq	-256(%rbp), %rax
	subq	$16, %rax
	.loc 3 933 82
	movl	$1024, %edx
	cmpq	%rdx, %rax
	cmova	%rdx, %rax
	.loc 3 933 20
	movq	-264(%rbp), %rdx
	leaq	16(%rdx), %rcx
	.loc 3 933 9
	movq	%rax, %rdx
	movl	$-1, %esi
	movq	%rcx, %rdi
	call	memset@PLT
.L317:
.LBE865:
	.loc 3 936 39
	movq	-264(%rbp), %rax
	movq	-360(%rbp), %rdx
	movq	%rdx, 8(%rax)
	.loc 3 937 9
	movq	-264(%rbp), %rax
	addq	$16, %rax
	movq	%rax, -232(%rbp)
.LBB939:
	.loc 3 938 23
	movq	-232(%rbp), %rax
	andl	$15, %eax
	.loc 3 938 2
	testq	%rax, %rax
	je	.L337
.LBB940:
	.loc 3 938 70 discriminator 1
	movl	$116, %edx
	leaq	.LC30(%rip), %rax
	movq	%rax, %rsi
	movl	$2, %edi
	call	write@PLT
	.loc 3 938 59 discriminator 1
	movl	%eax, -328(%rbp)
	.loc 3 938 377 discriminator 1
	call	abort@PLT
.L337:
.LBE940:
.LBE939:
.LBB941:
	.loc 3 941 40
	call	_ZN3UPP12uHeapControl9traceHeapEv
	.loc 3 941 2
	testb	%al, %al
	je	.L338
.LBB942:
	.loc 3 944 21
	movq	-256(%rbp), %rsi
	movq	-360(%rbp), %rcx
	movq	-232(%rbp), %rdx
	leaq	-80(%rbp), %rax
	movq	%rsi, %r9
	movq	%rcx, %r8
	movq	%rdx, %rcx
	leaq	.LC31(%rip), %rdx
	movl	$64, %esi
	movq	%rax, %rdi
	movl	$0, %eax
	call	snprintf@PLT
	movl	%eax, -336(%rbp)
	.loc 3 945 14
	movl	-336(%rbp), %edx
	leaq	-80(%rbp), %rax
	movq	%rax, %rsi
	movl	$2, %edi
	call	uDebugWrite@PLT
.L338:
.LBE942:
.LBE941:
.LBB943:
	.loc 3 949 43
	movzbl	24+_ZN13uKernelModule17uKernelModuleBootE(%rip), %eax
	.loc 3 949 7
	testb	%al, %al
	jne	.L339
	.loc 3 949 94 discriminator 2
	movl	28+_ZN13uKernelModule17uKernelModuleBootE(%rip), %eax
	.loc 3 949 54 discriminator 2
	testl	%eax, %eax
	je	.L340
.L339:
	.loc 3 949 157 discriminator 3
	movzbl	24+_ZN13uKernelModule17uKernelModuleBootE(%rip), %eax
	xorl	$1, %eax
	.loc 3 949 7 discriminator 3
	testb	%al, %al
	jne	.L341
	.loc 3 949 208 discriminator 6
	movl	28+_ZN13uKernelModule17uKernelModuleBootE(%rip), %eax
	.loc 3 949 168 discriminator 6
	testl	%eax, %eax
	jg	.L340
.L341:
	.loc 3 949 7 discriminator 7
	movl	$1, %eax
	jmp	.L342
.L340:
	.loc 3 949 7 is_stmt 0 discriminator 8
	movl	$0, %eax
.L342:
	.loc 3 949 2 is_stmt 1 discriminator 10
	testb	%al, %al
	je	.L343
.LBB944:
	.loc 3 949 70 discriminator 11
	movl	$290, %edx
	leaq	.LC32(%rip), %rax
	movq	%rax, %rsi
	movl	$2, %edi
	call	write@PLT
	.loc 3 949 59 discriminator 11
	movl	%eax, -332(%rbp)
	.loc 3 949 725 discriminator 11
	call	abort@PLT
.L343:
.LBE944:
.LBE943:
	.loc 3 951 69
	movzbl	41+_ZN13uKernelModule17uKernelModuleBootE(%rip), %eax
	.loc 3 951 24
	movzbl	%al, %eax
	testq	%rax, %rax
	je	.L344
	.loc 3 951 121 discriminator 1
	movzbl	40+_ZN13uKernelModule17uKernelModuleBootE(%rip), %eax
	xorl	$1, %eax
	.loc 3 951 24 discriminator 1
	movzbl	%al, %eax
	testq	%rax, %rax
	je	.L344
	.loc 3 951 24 is_stmt 0 discriminator 3
	movl	$1, %eax
	jmp	.L345
.L344:
	.loc 3 951 24 discriminator 4
	movl	$0, %eax
.L345:
	.loc 3 951 24 discriminator 6
	movzbl	%al, %eax
	testq	%rax, %rax
	setne	%al
	.loc 3 951 2 is_stmt 1 discriminator 6
	testb	%al, %al
	je	.L346
	.loc 3 952 49
	movb	$0, 41+_ZN13uKernelModule17uKernelModuleBootE(%rip)
.LBB945:
.LBB946:
	.loc 2 647 48
	movq	16+_ZN13uKernelModule17uKernelModuleBootE(%rip), %rax
.LBE946:
.LBE945:
	.loc 3 953 36
	movq	%rax, %rdi
	call	_ZN9uBaseTask17uYieldInvoluntaryEv@PLT
.L346:
	.loc 3 956 9
	movq	-232(%rbp), %rax
.L254:
	.loc 3 957 2
	movq	-8(%rbp), %rdx
	subq	%fs:40, %rdx
	je	.L348
	call	__stack_chk_fail@PLT
.L348:
	leave
	.cfi_def_cfa 7, 8
	ret
	.cfi_endproc
.LFE2866:
	.size	_ZL8doMallocm, .-_ZL8doMallocm
	.section	.rodata
	.align 8
.LC33:
	.string	"/u0/usystem/software/u++-7.0.0/src/kernel/uHeapLmmm.cc:962: Assertion \"addr\" failed.\n"
.LC34:
	.string	"free"
	.align 8
.LC35:
	.string	"attempt to %s storage %p with address outside the heap.\nPossible cause is duplicate free on same block or overwriting of memory."
	.align 8
.LC36:
	.string	"alignment %zu for memory allocation is less than %d and/or not a power of 2."
	.align 8
.LC37:
	.string	"/u0/usystem/software/u++-7.0.0/src/kernel/uHeapLmmm.cc:699: Assertion \"addr < heapMaster.heapBegin || heapMaster.heapEnd < addr\" failed.\n"
	.align 8
.LC38:
	.string	"attempt to %s storage %p with corrupted header.\nPossible cause is duplicate free on same block or overwriting of header information."
	.align 8
.LC39:
	.string	"attempt to deallocate large object %p and munmap failed with errno %d.\nPossible cause is invalid delete pointer: either not allocated or with corrupt header."
	.align 8
.LC40:
	.string	"/u0/usystem/software/u++-7.0.0/src/kernel/uHeapLmmm.cc:1020: Assertion \"heap\" failed.\n"
	.align 8
.LC41:
	.string	"Free( %p ) size %zu allocated %zu\n"
	.align 8
.LC42:
	.ascii	"/u0/usystem/software/u++-7.0.0/src/"
	.string	"kernel/uHeapLmmm.cc:1061: Assertion \"( ! uKernelModule::uKernelModuleBoot.disableInt && uKernelModule::uKernelModuleBoot.disableIntCnt == 0 ) || ( uKernelModule::uKernelModuleBoot.disableInt && uKernelModule::uKernelModuleBoot.disableIntCnt > 0 )\" failed.\n"
	.section	text_nopreempt
	.type	_ZL6doFreePv, @function
_ZL6doFreePv:
.LFB2867:
	.loc 3 961 37
	.cfi_startproc
	endbr64
	pushq	%rbp
	.cfi_def_cfa_offset 16
	.cfi_offset 6, -16
	movq	%rsp, %rbp
	.cfi_def_cfa_register 6
	subq	$368, %rsp
	movq	%rdi, -360(%rbp)
	.loc 3 961 37
	movq	%fs:40, %rax
	movq	%rax, -8(%rbp)
	xorl	%eax, %eax
.LBB947:
	.loc 3 962 2
	cmpq	$0, -360(%rbp)
	jne	.L358
.LBB948:
	.loc 3 962 70 discriminator 1
	movl	$85, %edx
	leaq	.LC33(%rip), %rax
	movq	%rax, %rsi
	movl	$2, %edi
	call	write@PLT
	.loc 3 962 59 discriminator 1
	movl	%eax, -332(%rbp)
	.loc 3 962 315 discriminator 1
	call	abort@PLT
.L358:
.LBE948:
.LBE947:
	.loc 3 963 9
	movq	_ZL11heapManager(%rip), %rax
	movq	%rax, -256(%rbp)
	leaq	.LC34(%rip), %rax
	movq	%rax, -224(%rbp)
	movq	-360(%rbp), %rax
	movq	%rax, -216(%rbp)
.LBB949:
.LBB950:
	.loc 3 689 13
	movq	-216(%rbp), %rax
	subq	$16, %rax
	.loc 3 689 9
	movq	%rax, -288(%rbp)
	.loc 3 691 16
	movq	-288(%rbp), %rdx
	.loc 3 691 38
	movq	8+_ZL10heapMaster(%rip), %rax
	.loc 3 691 14
	cmpq	%rax, %rdx
	setb	%al
	movzbl	%al, %eax
	movb	%al, -348(%rbp)
	andb	$1, -348(%rbp)
	movq	-224(%rbp), %rax
	movq	%rax, -208(%rbp)
	movq	-216(%rbp), %rax
	movq	%rax, -200(%rbp)
.LBB951:
.LBB952:
	.loc 3 650 24
	movzbl	-348(%rbp), %eax
	.loc 3 650 2
	testq	%rax, %rax
	je	.L455
	.loc 3 651 8
	movq	-200(%rbp), %rdx
	movq	-208(%rbp), %rax
	movq	%rax, %rsi
	leaq	.LC35(%rip), %rax
	movq	%rax, %rdi
	movl	$0, %eax
	call	_Z5abortPKcz@PLT
.L455:
	.loc 3 655 2
	nop
.LBE952:
.LBE951:
.LBB953:
	.loc 3 693 40
	movq	-288(%rbp), %rax
	.loc 3 693 66
	movq	(%rax), %rax
	.loc 3 693 76
	andl	$7, %eax
	.loc 3 693 26
	testq	%rax, %rax
	sete	%al
	.loc 3 693 24
	movzbl	%al, %eax
	.loc 3 693 2
	testq	%rax, %rax
	je	.L360
	.loc 3 694 13
	movq	-288(%rbp), %rax
	.loc 3 694 37
	movq	(%rax), %rax
	.loc 3 694 11
	movq	%rax, -280(%rbp)
	.loc 3 695 12
	movq	$16, -264(%rbp)
	jmp	.L361
.L360:
	leaq	-288(%rbp), %rax
	movq	%rax, -192(%rbp)
	leaq	-264(%rbp), %rax
	movq	%rax, -184(%rbp)
.LBB954:
.LBB955:
.LBB956:
	.loc 3 676 40
	movq	-192(%rbp), %rax
	movq	(%rax), %rax
	.loc 3 676 66
	movq	(%rax), %rax
	.loc 3 676 78
	andl	$1, %eax
	.loc 3 676 26
	testq	%rax, %rax
	setne	%al
	.loc 3 676 24
	movzbl	%al, %eax
	.loc 3 676 2
	testq	%rax, %rax
	je	.L362
	.loc 3 677 20
	movq	-192(%rbp), %rax
	movq	(%rax), %rax
	.loc 3 677 46
	movq	(%rax), %rax
	.loc 3 677 58
	andq	$-2, %rax
	movq	%rax, %rdx
	.loc 3 677 12
	movq	-184(%rbp), %rax
	movq	%rdx, (%rax)
	.loc 3 678 13
	movq	-184(%rbp), %rax
	movq	(%rax), %rax
	movq	%rax, -176(%rbp)
.LBB957:
.LBB958:
	.loc 3 642 42
	cmpq	$15, -176(%rbp)
	setbe	%al
	.loc 3 642 24
	movzbl	%al, %eax
	testq	%rax, %rax
	jne	.L363
	movq	-176(%rbp), %rax
	movq	%rax, -168(%rbp)
.LBB959:
.LBB960:
	.loc 4 40 27
	movq	-168(%rbp), %rax
	subq	$1, %rax
	.loc 4 40 17
	andq	-168(%rbp), %rax
	.loc 4 40 38
	testq	%rax, %rax
	sete	%al
.LBE960:
.LBE959:
	.loc 3 642 62
	xorl	$1, %eax
	.loc 3 642 24
	movzbl	%al, %eax
	testq	%rax, %rax
	je	.L365
.L363:
	movl	$1, %eax
	jmp	.L366
.L365:
	movl	$0, %eax
.L366:
	movzbl	%al, %eax
	testq	%rax, %rax
	setne	%al
	.loc 3 642 2
	testb	%al, %al
	je	.L456
	.loc 3 643 8
	movq	-176(%rbp), %rax
	movl	$16, %edx
	movq	%rax, %rsi
	leaq	.LC36(%rip), %rax
	movq	%rax, %rdi
	movl	$0, %eax
	call	_Z5abortPKcz@PLT
.L456:
	.loc 3 645 2
	nop
.LBE958:
.LBE957:
	.loc 3 679 58
	movq	-192(%rbp), %rax
	movq	(%rax), %rdx
	.loc 3 679 67
	movq	-192(%rbp), %rax
	movq	(%rax), %rax
	.loc 3 679 91
	movq	8(%rax), %rax
	.loc 3 679 65
	negq	%rax
	.loc 3 679 13
	addq	%rax, %rdx
	.loc 3 679 9
	movq	-192(%rbp), %rax
	movq	%rdx, (%rax)
	.loc 3 683 2
	jmp	.L457
.L362:
	.loc 3 681 12
	movq	-184(%rbp), %rax
	movq	$16, (%rax)
.L457:
	.loc 3 683 2
	nop
.LBE956:
.LBE955:
.LBB961:
	.loc 3 698 40
	movq	-288(%rbp), %rax
	.loc 3 698 66
	movq	(%rax), %rax
	.loc 3 698 78
	andl	$4, %eax
	.loc 3 698 26
	testq	%rax, %rax
	setne	%al
	.loc 3 698 24
	movzbl	%al, %eax
	.loc 3 698 2
	testq	%rax, %rax
	je	.L369
.LBB962:
.LBB963:
	.loc 3 699 22
	movq	8+_ZL10heapMaster(%rip), %rax
	.loc 3 699 2
	cmpq	%rax, -216(%rbp)
	jb	.L370
	.loc 3 699 48
	movq	16+_ZL10heapMaster(%rip), %rax
	.loc 3 699 7
	cmpq	%rax, -216(%rbp)
	ja	.L370
.LBB964:
	.loc 3 699 70
	movl	$137, %edx
	leaq	.LC37(%rip), %rax
	movq	%rax, %rsi
	movl	$2, %edi
	call	write@PLT
	.loc 3 699 59
	movl	%eax, -328(%rbp)
	.loc 3 699 419
	call	abort@PLT
.L370:
.LBE964:
.LBE963:
	.loc 3 700 78
	movq	-288(%rbp), %rax
	.loc 3 700 102
	movq	(%rax), %rax
	.loc 3 700 114
	andq	$-8, %rax
	.loc 3 700 7
	movq	%rax, -272(%rbp)
	.loc 3 701 9
	movl	$1, %eax
	jmp	.L371
.L369:
.LBE962:
.LBE961:
	.loc 3 704 77
	movq	-288(%rbp), %rax
	.loc 3 704 101
	movq	(%rax), %rax
	.loc 3 704 108
	andq	$-8, %rax
	.loc 3 704 11
	movq	%rax, -280(%rbp)
.L361:
.LBE954:
.LBE953:
	.loc 3 706 9
	movq	-280(%rbp), %rax
	.loc 3 706 21
	movq	32(%rax), %rax
	.loc 3 706 7
	movq	%rax, -272(%rbp)
	.loc 3 709 16
	movq	-288(%rbp), %rdx
	.loc 3 709 38
	movq	8+_ZL10heapMaster(%rip), %rax
	.loc 3 709 48
	cmpq	%rax, %rdx
	jb	.L372
	.loc 3 709 64
	movq	16+_ZL10heapMaster(%rip), %rdx
	.loc 3 709 74
	movq	-288(%rbp), %rax
	.loc 3 709 48
	cmpq	%rax, %rdx
	jnb	.L373
.L372:
	movl	$1, %eax
	jmp	.L374
.L373:
	movl	$0, %eax
.L374:
	.loc 3 709 14
	movzbl	%al, %eax
	movb	%al, -347(%rbp)
	andb	$1, -347(%rbp)
	movq	-224(%rbp), %rax
	movq	%rax, -160(%rbp)
	movq	-216(%rbp), %rax
	movq	%rax, -152(%rbp)
.LBB965:
.LBB966:
	.loc 3 650 24
	movzbl	-347(%rbp), %eax
	.loc 3 650 2
	testq	%rax, %rax
	je	.L458
	.loc 3 651 8
	movq	-152(%rbp), %rdx
	movq	-160(%rbp), %rax
	movq	%rax, %rsi
	leaq	.LC35(%rip), %rax
	movq	%rax, %rdi
	movl	$0, %eax
	call	_Z5abortPKcz@PLT
.L458:
	.loc 3 655 2
	nop
.LBE966:
.LBE965:
	.loc 3 712 32
	movq	-280(%rbp), %rax
	.loc 3 712 41
	testq	%rax, %rax
	sete	%al
	.loc 3 712 24
	movzbl	%al, %eax
	testq	%rax, %rax
	jne	.L376
	.loc 3 712 71
	movq	-280(%rbp), %rax
	.loc 3 712 69
	movq	24(%rax), %rax
	movq	%rax, -144(%rbp)
	.loc 3 712 97
	movq	-280(%rbp), %rdx
	.loc 3 712 108
	movq	-144(%rbp), %rax
	.loc 3 712 141
	cmpq	%rax, %rdx
	jb	.L377
	.loc 3 712 144
	movq	-144(%rbp), %rax
	leaq	3640(%rax), %rdx
	.loc 3 712 200
	movq	-280(%rbp), %rax
	.loc 3 712 141
	cmpq	%rax, %rdx
	ja	.L378
.L377:
	movl	$1, %eax
	jmp	.L379
.L378:
	movl	$0, %eax
.L379:
	.loc 3 712 24
	movzbl	%al, %eax
	testq	%rax, %rax
	je	.L380
.L376:
	movl	$1, %eax
	jmp	.L381
.L380:
	movl	$0, %eax
.L381:
	movzbl	%al, %eax
	testq	%rax, %rax
	setne	%al
	.loc 3 712 2
	testb	%al, %al
	je	.L382
	.loc 3 716 8
	movq	-216(%rbp), %rdx
	movq	-224(%rbp), %rax
	movq	%rax, %rsi
	leaq	.LC38(%rip), %rax
	movq	%rax, %rdi
	movl	$0, %eax
	call	_Z5abortPKcz@PLT
.L382:
	.loc 3 722 9
	movl	$0, %eax
.L371:
.LBE950:
.LBE949:
	.loc 3 971 24
	movb	%al, -349(%rbp)
	.loc 3 973 41
	movq	-288(%rbp), %rax
	.loc 3 973 9
	movq	8(%rax), %rax
	movq	%rax, -248(%rbp)
	.loc 3 981 23
	movq	-256(%rbp), %rax
	movq	3672(%rax), %rax
	subq	-248(%rbp), %rax
	movq	%rax, %rdx
	movq	-256(%rbp), %rax
	movq	%rdx, 3672(%rax)
.LBB967:
	.loc 3 983 24
	movzbl	-349(%rbp), %eax
	.loc 3 983 2
	testq	%rax, %rax
	je	.L383
	.loc 3 991 7
	movq	$0, -256(%rbp)
	.loc 3 994 39
	movq	-272(%rbp), %rdx
	movq	-288(%rbp), %rax
	movq	%rdx, %rsi
	movq	%rax, %rdi
	call	munmap@PLT
	.loc 3 994 26
	cmpl	$-1, %eax
	sete	%al
	.loc 3 994 24
	movzbl	%al, %eax
	testq	%rax, %rax
	setne	%al
	.loc 3 994 2
	testb	%al, %al
	je	.L384
	.loc 3 998 23
	call	__errno_location@PLT
	.loc 3 996 8
	movl	(%rax), %edx
	movq	-360(%rbp), %rax
	movq	%rax, %rsi
	leaq	.LC39(%rip), %rax
	movq	%rax, %rdi
	movl	$0, %eax
	call	_Z5abortPKcz@PLT
.L383:
.LBB968:
.LBB969:
.LBB970:
	.loc 2 527 33
	movb	$1, 24+_ZN13uKernelModule17uKernelModuleBootE(%rip)
	.loc 2 528 36
	movl	28+_ZN13uKernelModule17uKernelModuleBootE(%rip), %eax
	addl	$1, %eax
	movl	%eax, 28+_ZN13uKernelModule17uKernelModuleBootE(%rip)
	.loc 2 529 2
	nop
.LBE970:
.LBE969:
	.loc 3 1005 18
	movq	-288(%rbp), %rax
	.loc 3 1005 9
	addq	$16, %rax
	movq	%rax, -240(%rbp)
	.loc 3 1006 22
	movq	-272(%rbp), %rax
	.loc 3 1006 9
	subq	$16, %rax
	movq	%rax, -232(%rbp)
	.loc 3 1007 2
	cmpq	$2048, -232(%rbp)
	ja	.L385
	.loc 3 1008 9
	movq	-232(%rbp), %rdx
	movq	-240(%rbp), %rax
	movl	$-1, %esi
	movq	%rax, %rdi
	call	memset@PLT
	jmp	.L386
.L385:
	.loc 3 1010 9
	movq	-240(%rbp), %rax
	movl	$1024, %edx
	movl	$-1, %esi
	movq	%rax, %rdi
	call	memset@PLT
	.loc 3 1011 24
	movq	-232(%rbp), %rax
	leaq	-1024(%rax), %rdx
	movq	-240(%rbp), %rax
	addq	%rdx, %rax
	.loc 3 1011 9
	movl	$1024, %edx
	movl	$-1, %esi
	movq	%rax, %rdi
	call	memset@PLT
.L386:
.LBB971:
.LBB972:
.LBB973:
	.loc 2 545 22
	movzbl	24+_ZN13uKernelModule17uKernelModuleBootE(%rip), %eax
	xorl	$1, %eax
	.loc 2 545 7
	testb	%al, %al
	jne	.L387
	.loc 2 545 56
	movl	28+_ZN13uKernelModule17uKernelModuleBootE(%rip), %eax
	.loc 2 545 7
	testl	%eax, %eax
	jg	.L388
.L387:
	movl	$1, %eax
	jmp	.L389
.L388:
	movl	$0, %eax
.L389:
	.loc 2 545 2
	testb	%al, %al
	je	.L390
.LBB974:
	.loc 2 545 70
	movl	$102, %edx
	leaq	.LC27(%rip), %rax
	movq	%rax, %rsi
	movl	$2, %edi
	call	write@PLT
	.loc 2 545 59
	movl	%eax, -324(%rbp)
	.loc 2 545 349
	call	abort@PLT
.L390:
.LBE974:
.LBE973:
	.loc 2 547 36
	movl	28+_ZN13uKernelModule17uKernelModuleBootE(%rip), %eax
	subl	$1, %eax
	movl	%eax, 28+_ZN13uKernelModule17uKernelModuleBootE(%rip)
	.loc 2 548 52
	movl	28+_ZN13uKernelModule17uKernelModuleBootE(%rip), %eax
	.loc 2 548 26
	testl	%eax, %eax
	sete	%al
	.loc 2 548 24
	movzbl	%al, %eax
	testq	%rax, %rax
	setne	%al
	.loc 2 548 2
	testb	%al, %al
	je	.L391
	.loc 2 549 33
	movb	$0, 24+_ZN13uKernelModule17uKernelModuleBootE(%rip)
.L391:
.LBB975:
	.loc 2 553 26
	movzbl	24+_ZN13uKernelModule17uKernelModuleBootE(%rip), %eax
	.loc 2 553 7
	testb	%al, %al
	jne	.L392
	.loc 2 553 60
	movl	28+_ZN13uKernelModule17uKernelModuleBootE(%rip), %eax
	.loc 2 553 37
	testl	%eax, %eax
	je	.L393
.L392:
	.loc 2 553 106
	movzbl	24+_ZN13uKernelModule17uKernelModuleBootE(%rip), %eax
	xorl	$1, %eax
	.loc 2 553 7
	testb	%al, %al
	jne	.L394
	.loc 2 553 140
	movl	28+_ZN13uKernelModule17uKernelModuleBootE(%rip), %eax
	.loc 2 553 117
	testl	%eax, %eax
	jg	.L393
.L394:
	.loc 2 553 7
	movl	$1, %eax
	jmp	.L395
.L393:
	movl	$0, %eax
.L395:
	.loc 2 553 2
	testb	%al, %al
	je	.L459
.LBB976:
	.loc 2 553 70
	movl	$184, %edx
	leaq	.LC28(%rip), %rax
	movq	%rax, %rsi
	movl	$2, %edi
	call	write@PLT
	.loc 2 553 59
	movl	%eax, -320(%rbp)
	.loc 2 553 513
	call	abort@PLT
.L459:
.LBE976:
.LBE975:
	.loc 2 554 2
	nop
.LBE972:
.LBE971:
.LBB977:
	.loc 3 1016 52
	movq	-280(%rbp), %rax
	movq	24(%rax), %rax
	.loc 3 1016 26
	cmpq	%rax, -256(%rbp)
	sete	%al
	.loc 3 1016 24
	movzbl	%al, %eax
	.loc 3 1016 2
	testq	%rax, %rax
	je	.L397
	.loc 3 1017 45
	movq	-280(%rbp), %rdx
	.loc 3 1017 26
	movq	-288(%rbp), %rax
	.loc 3 1017 45
	movq	16(%rdx), %rdx
	.loc 3 1017 31
	movq	%rdx, (%rax)
	.loc 3 1018 14
	movq	-280(%rbp), %rax
	.loc 3 1018 23
	movq	-288(%rbp), %rdx
	movq	%rdx, 16(%rax)
	jmp	.L384
.L397:
.LBB978:
.LBB979:
	.loc 3 1020 2
	cmpq	$0, -256(%rbp)
	jne	.L398
.LBB980:
	.loc 3 1020 70 discriminator 1
	movl	$86, %edx
	leaq	.LC40(%rip), %rax
	movq	%rax, %rsi
	movl	$2, %edi
	call	write@PLT
	.loc 3 1020 59 discriminator 1
	movl	%eax, -344(%rbp)
	.loc 3 1020 317 discriminator 1
	call	abort@PLT
.L398:
.LBE980:
.LBE979:
	.loc 3 1024 14
	movq	-280(%rbp), %rax
	movq	%rax, -120(%rbp)
.LBB981:
.LBB982:
	.loc 2 128 94
	movq	-120(%rbp), %rax
	movq	%rax, -136(%rbp)
	movq	-136(%rbp), %rax
	movq	%rax, -128(%rbp)
	movb	$0, -346(%rbp)
.LBE982:
.LBE981:
.LBB983:
.LBB984:
.LBB985:
.LBB986:
	.loc 2 678 7
	movq	-128(%rbp), %rax
	movl	(%rax), %eax
	.loc 2 678 2
	testl	%eax, %eax
	je	.L400
	.loc 2 679 8
	movq	-128(%rbp), %rax
	movq	%rax, %rsi
	leaq	.LC10(%rip), %rax
	movq	%rax, %rdi
	movl	$0, %eax
	call	_Z5abortPKcz@PLT
.L400:
.LBB987:
.LBB988:
.LBB989:
	.loc 2 557 26
	movzbl	32+_ZN13uKernelModule17uKernelModuleBootE(%rip), %eax
	.loc 2 557 7
	testb	%al, %al
	jne	.L401
	.loc 2 557 64
	movl	36+_ZN13uKernelModule17uKernelModuleBootE(%rip), %eax
	.loc 2 557 41
	testl	%eax, %eax
	je	.L402
.L401:
	.loc 2 557 114
	movzbl	32+_ZN13uKernelModule17uKernelModuleBootE(%rip), %eax
	xorl	$1, %eax
	.loc 2 557 7
	testb	%al, %al
	jne	.L403
	.loc 2 557 152
	movl	36+_ZN13uKernelModule17uKernelModuleBootE(%rip), %eax
	.loc 2 557 129
	testl	%eax, %eax
	jg	.L402
.L403:
	.loc 2 557 7
	movl	$1, %eax
	jmp	.L404
.L402:
	movl	$0, %eax
.L404:
	.loc 2 557 2
	testb	%al, %al
	je	.L405
.LBB990:
	.loc 2 557 70
	movl	$200, %edx
	leaq	.LC11(%rip), %rax
	movq	%rax, %rsi
	movl	$2, %edi
	call	write@PLT
	.loc 2 557 59
	movl	%eax, -316(%rbp)
	.loc 2 557 545
	call	abort@PLT
.L405:
.LBE990:
.LBE989:
	.loc 2 559 37
	movb	$1, 32+_ZN13uKernelModule17uKernelModuleBootE(%rip)
	.loc 2 560 40
	movl	36+_ZN13uKernelModule17uKernelModuleBootE(%rip), %eax
	addl	$1, %eax
	movl	%eax, 36+_ZN13uKernelModule17uKernelModuleBootE(%rip)
.LBB991:
	.loc 2 562 22
	movzbl	32+_ZN13uKernelModule17uKernelModuleBootE(%rip), %eax
	xorl	$1, %eax
	.loc 2 562 7
	testb	%al, %al
	jne	.L406
	.loc 2 562 60
	movl	36+_ZN13uKernelModule17uKernelModuleBootE(%rip), %eax
	.loc 2 562 7
	testl	%eax, %eax
	jg	.L407
.L406:
	movl	$1, %eax
	jmp	.L408
.L407:
	movl	$0, %eax
.L408:
	.loc 2 562 2
	testb	%al, %al
	je	.L460
.LBB992:
	.loc 2 562 70
	movl	$110, %edx
	leaq	.LC12(%rip), %rax
	movq	%rax, %rsi
	movl	$2, %edi
	call	write@PLT
	.loc 2 562 59
	movl	%eax, -312(%rbp)
	.loc 2 562 365
	call	abort@PLT
.L460:
.LBE992:
.LBE991:
	.loc 2 563 2
	nop
.LBE988:
.LBE987:
	.loc 2 716 8
	movq	-128(%rbp), %rax
	movl	$1, (%rax)
	.loc 2 718 2
	nop
.LBE986:
.LBE985:
	.loc 2 744 2
	.loc 2 745 2
	nop
.LBE984:
.LBE983:
	.loc 3 1025 45
	movq	-280(%rbp), %rdx
	.loc 3 1025 26
	movq	-288(%rbp), %rax
	.loc 3 1025 45
	movq	8(%rdx), %rdx
	.loc 3 1025 31
	movq	%rdx, (%rax)
	.loc 3 1026 14
	movq	-280(%rbp), %rax
	.loc 3 1026 25
	movq	-288(%rbp), %rdx
	movq	%rdx, 8(%rax)
	.loc 3 1027 14
	movq	-280(%rbp), %rax
	movq	%rax, -88(%rbp)
.LBB993:
.LBB994:
	.loc 2 128 94
	movq	-88(%rbp), %rax
	movq	%rax, -112(%rbp)
.LBE994:
.LBE993:
.LBB995:
.LBB996:
	.loc 2 770 2
	movq	-112(%rbp), %rax
	movq	%rax, -104(%rbp)
	movb	$0, -345(%rbp)
.LBB997:
.LBB998:
.LBB999:
	.loc 2 721 2
	movq	-104(%rbp), %rax
	movl	(%rax), %eax
	.loc 2 721 2
	testl	%eax, %eax
	jne	.L411
.LBB1000:
	.loc 2 721 70
	movl	$45, %edx
	leaq	.LC13(%rip), %rax
	movq	%rax, %rsi
	movl	$2, %edi
	call	write@PLT
	.loc 2 721 59
	movl	%eax, -308(%rbp)
	.loc 2 721 235
	call	abort@PLT
.L411:
.LBE1000:
.LBE999:
	.loc 2 722 15
	movq	-104(%rbp), %rax
	movq	%rax, -96(%rbp)
.LBB1001:
.LBB1002:
	.loc 5 81 17
	movq	-96(%rbp), %rax
	movl	$0, %edx
	movb	%dl, (%rax)
	.loc 5 82 2
	nop
.LBE1002:
.LBE1001:
	.loc 2 723 2
	cmpb	$0, -345(%rbp)
	je	.L412
.LBB1003:
.LBB1004:
.LBB1005:
	.loc 2 581 22
	movzbl	32+_ZN13uKernelModule17uKernelModuleBootE(%rip), %eax
	xorl	$1, %eax
	.loc 2 581 7
	testb	%al, %al
	jne	.L413
	.loc 2 581 60
	movl	36+_ZN13uKernelModule17uKernelModuleBootE(%rip), %eax
	.loc 2 581 7
	testl	%eax, %eax
	jg	.L414
.L413:
	movl	$1, %eax
	jmp	.L415
.L414:
	movl	$0, %eax
.L415:
	.loc 2 581 2
	testb	%al, %al
	je	.L416
.LBB1006:
	.loc 2 581 70
	movl	$110, %edx
	leaq	.LC14(%rip), %rax
	movq	%rax, %rsi
	movl	$2, %edi
	call	write@PLT
	.loc 2 581 59
	movl	%eax, -304(%rbp)
	.loc 2 581 365
	call	abort@PLT
.L416:
.LBE1006:
.LBE1005:
	.loc 2 583 40
	movl	36+_ZN13uKernelModule17uKernelModuleBootE(%rip), %eax
	subl	$1, %eax
	movl	%eax, 36+_ZN13uKernelModule17uKernelModuleBootE(%rip)
	.loc 2 584 52
	movl	36+_ZN13uKernelModule17uKernelModuleBootE(%rip), %eax
	.loc 2 584 26
	testl	%eax, %eax
	sete	%al
	.loc 2 584 24
	movzbl	%al, %eax
	testq	%rax, %rax
	setne	%al
	.loc 2 584 2
	testb	%al, %al
	je	.L417
	.loc 2 585 37
	movb	$0, 32+_ZN13uKernelModule17uKernelModuleBootE(%rip)
.L417:
.LBB1007:
	.loc 2 588 26
	movzbl	32+_ZN13uKernelModule17uKernelModuleBootE(%rip), %eax
	.loc 2 588 7
	testb	%al, %al
	jne	.L418
	.loc 2 588 64
	movl	36+_ZN13uKernelModule17uKernelModuleBootE(%rip), %eax
	.loc 2 588 41
	testl	%eax, %eax
	je	.L419
.L418:
	.loc 2 588 114
	movzbl	32+_ZN13uKernelModule17uKernelModuleBootE(%rip), %eax
	xorl	$1, %eax
	.loc 2 588 7
	testb	%al, %al
	jne	.L420
	.loc 2 588 152
	movl	36+_ZN13uKernelModule17uKernelModuleBootE(%rip), %eax
	.loc 2 588 129
	testl	%eax, %eax
	jg	.L419
.L420:
	.loc 2 588 7
	movl	$1, %eax
	jmp	.L421
.L419:
	movl	$0, %eax
.L421:
	.loc 2 588 2
	testb	%al, %al
	je	.L461
.LBB1008:
	.loc 2 588 70
	movl	$200, %edx
	leaq	.LC15(%rip), %rax
	movq	%rax, %rsi
	movl	$2, %edi
	call	write@PLT
	.loc 2 588 59
	movl	%eax, -300(%rbp)
	.loc 2 588 545
	call	abort@PLT
.L412:
.LBE1008:
.LBE1007:
.LBE1004:
.LBE1003:
.LBB1010:
.LBB1011:
.LBB1012:
	.loc 2 566 22
	movzbl	32+_ZN13uKernelModule17uKernelModuleBootE(%rip), %eax
	xorl	$1, %eax
	.loc 2 566 7
	testb	%al, %al
	jne	.L424
	.loc 2 566 60
	movl	36+_ZN13uKernelModule17uKernelModuleBootE(%rip), %eax
	.loc 2 566 7
	testl	%eax, %eax
	jg	.L425
.L424:
	movl	$1, %eax
	jmp	.L426
.L425:
	movl	$0, %eax
.L426:
	.loc 2 566 2
	testb	%al, %al
	je	.L427
.LBB1013:
	.loc 2 566 70
	movl	$110, %edx
	leaq	.LC16(%rip), %rax
	movq	%rax, %rsi
	movl	$2, %edi
	call	write@PLT
	.loc 2 566 59
	movl	%eax, -296(%rbp)
	.loc 2 566 365
	call	abort@PLT
.L427:
.LBE1013:
.LBE1012:
	.loc 2 568 40
	movl	36+_ZN13uKernelModule17uKernelModuleBootE(%rip), %eax
	subl	$1, %eax
	movl	%eax, 36+_ZN13uKernelModule17uKernelModuleBootE(%rip)
	.loc 2 569 52
	movl	36+_ZN13uKernelModule17uKernelModuleBootE(%rip), %eax
	.loc 2 569 26
	testl	%eax, %eax
	sete	%al
	.loc 2 569 24
	movzbl	%al, %eax
	testq	%rax, %rax
	setne	%al
	.loc 2 569 2
	testb	%al, %al
	je	.L428
	.loc 2 570 37
	movb	$0, 32+_ZN13uKernelModule17uKernelModuleBootE(%rip)
	.loc 2 572 52
	movzbl	41+_ZN13uKernelModule17uKernelModuleBootE(%rip), %eax
	.loc 2 572 24
	movzbl	%al, %eax
	testq	%rax, %rax
	je	.L429
	.loc 2 572 87
	movzbl	40+_ZN13uKernelModule17uKernelModuleBootE(%rip), %eax
	xorl	$1, %eax
	.loc 2 572 24
	movzbl	%al, %eax
	testq	%rax, %rax
	je	.L429
	movl	$1, %eax
	jmp	.L430
.L429:
	movl	$0, %eax
.L430:
	testb	%al, %al
	je	.L431
	.loc 2 572 125
	movzbl	24+_ZN13uKernelModule17uKernelModuleBootE(%rip), %eax
	xorl	$1, %eax
	.loc 2 572 24
	movzbl	%al, %eax
	testq	%rax, %rax
	je	.L431
	movl	$1, %eax
	jmp	.L432
.L431:
	movl	$0, %eax
.L432:
	movzbl	%al, %eax
	testq	%rax, %rax
	setne	%al
	.loc 2 572 2
	testb	%al, %al
	je	.L428
	.loc 2 573 14
	movl	$0, %edi
	call	_ZN13uKernelModule11rollForwardEb@PLT
.L428:
.LBB1014:
	.loc 2 577 26
	movzbl	32+_ZN13uKernelModule17uKernelModuleBootE(%rip), %eax
	.loc 2 577 7
	testb	%al, %al
	jne	.L433
	.loc 2 577 64
	movl	36+_ZN13uKernelModule17uKernelModuleBootE(%rip), %eax
	.loc 2 577 41
	testl	%eax, %eax
	je	.L434
.L433:
	.loc 2 577 114
	movzbl	32+_ZN13uKernelModule17uKernelModuleBootE(%rip), %eax
	xorl	$1, %eax
	.loc 2 577 7
	testb	%al, %al
	jne	.L435
	.loc 2 577 152
	movl	36+_ZN13uKernelModule17uKernelModuleBootE(%rip), %eax
	.loc 2 577 129
	testl	%eax, %eax
	jg	.L434
.L435:
	.loc 2 577 7
	movl	$1, %eax
	jmp	.L436
.L434:
	movl	$0, %eax
.L436:
	.loc 2 577 2
	testb	%al, %al
	je	.L462
.LBB1015:
	.loc 2 577 70
	movl	$200, %edx
	leaq	.LC17(%rip), %rax
	movq	%rax, %rsi
	movl	$2, %edi
	call	write@PLT
	.loc 2 577 59
	movl	%eax, -292(%rbp)
	.loc 2 577 545
	call	abort@PLT
.L461:
.LBE1015:
.LBE1014:
.LBE1011:
.LBE1010:
.LBB1017:
.LBB1009:
	.loc 2 589 2
	nop
	jmp	.L423
.L462:
.LBE1009:
.LBE1017:
.LBB1018:
.LBB1016:
	.loc 2 578 2
	nop
.L423:
.LBE1016:
.LBE1018:
	.loc 2 728 2
	nop
.LBE998:
.LBE997:
	.loc 2 772 2
	nop
.LBE996:
.LBE995:
	.loc 3 1049 7
	movq	$0, -256(%rbp)
.L384:
.LBE978:
.LBE977:
.LBE968:
.LBE967:
.LBB1019:
	.loc 3 1054 40
	call	_ZN3UPP12uHeapControl9traceHeapEv
	.loc 3 1054 2
	testb	%al, %al
	je	.L438
.LBB1020:
	.loc 3 1056 21
	movq	-272(%rbp), %rsi
	movq	-248(%rbp), %rcx
	movq	-360(%rbp), %rdx
	leaq	-80(%rbp), %rax
	movq	%rsi, %r9
	movq	%rcx, %r8
	movq	%rdx, %rcx
	leaq	.LC41(%rip), %rdx
	movl	$64, %esi
	movq	%rax, %rdi
	movl	$0, %eax
	call	snprintf@PLT
	movl	%eax, -340(%rbp)
	.loc 3 1057 14
	movl	-340(%rbp), %edx
	leaq	-80(%rbp), %rax
	movq	%rax, %rsi
	movl	$2, %edi
	call	uDebugWrite@PLT
.L438:
.LBE1020:
.LBE1019:
.LBB1021:
	.loc 3 1061 43
	movzbl	24+_ZN13uKernelModule17uKernelModuleBootE(%rip), %eax
	.loc 3 1061 7
	testb	%al, %al
	jne	.L439
	.loc 3 1061 94 discriminator 2
	movl	28+_ZN13uKernelModule17uKernelModuleBootE(%rip), %eax
	.loc 3 1061 54 discriminator 2
	testl	%eax, %eax
	je	.L440
.L439:
	.loc 3 1061 157 discriminator 3
	movzbl	24+_ZN13uKernelModule17uKernelModuleBootE(%rip), %eax
	xorl	$1, %eax
	.loc 3 1061 7 discriminator 3
	testb	%al, %al
	jne	.L441
	.loc 3 1061 208 discriminator 6
	movl	28+_ZN13uKernelModule17uKernelModuleBootE(%rip), %eax
	.loc 3 1061 168 discriminator 6
	testl	%eax, %eax
	jg	.L440
.L441:
	.loc 3 1061 7 discriminator 7
	movl	$1, %eax
	jmp	.L442
.L440:
	.loc 3 1061 7 is_stmt 0 discriminator 8
	movl	$0, %eax
.L442:
	.loc 3 1061 2 is_stmt 1 discriminator 10
	testb	%al, %al
	je	.L443
.LBB1022:
	.loc 3 1061 70 discriminator 11
	movl	$291, %edx
	leaq	.LC42(%rip), %rax
	movq	%rax, %rsi
	movl	$2, %edi
	call	write@PLT
	.loc 3 1061 59 discriminator 11
	movl	%eax, -336(%rbp)
	.loc 3 1061 727 discriminator 11
	call	abort@PLT
.L443:
.LBE1022:
.LBE1021:
	.loc 3 1063 69
	movzbl	41+_ZN13uKernelModule17uKernelModuleBootE(%rip), %eax
	.loc 3 1063 24
	movzbl	%al, %eax
	testq	%rax, %rax
	je	.L444
	.loc 3 1063 121 discriminator 1
	movzbl	40+_ZN13uKernelModule17uKernelModuleBootE(%rip), %eax
	xorl	$1, %eax
	.loc 3 1063 24 discriminator 1
	movzbl	%al, %eax
	testq	%rax, %rax
	je	.L444
	.loc 3 1063 24 is_stmt 0 discriminator 3
	movl	$1, %eax
	jmp	.L445
.L444:
	.loc 3 1063 24 discriminator 4
	movl	$0, %eax
.L445:
	.loc 3 1063 24 discriminator 6
	movzbl	%al, %eax
	testq	%rax, %rax
	setne	%al
	.loc 3 1063 2 is_stmt 1 discriminator 6
	testb	%al, %al
	je	.L463
	.loc 3 1064 49
	movb	$0, 41+_ZN13uKernelModule17uKernelModuleBootE(%rip)
.LBB1023:
.LBB1024:
	.loc 2 647 48
	movq	16+_ZN13uKernelModule17uKernelModuleBootE(%rip), %rax
.LBE1024:
.LBE1023:
	.loc 3 1065 36
	movq	%rax, %rdi
	call	_ZN9uBaseTask17uYieldInvoluntaryEv@PLT
.L463:
	.loc 3 1067 2
	nop
	movq	-8(%rbp), %rax
	subq	%fs:40, %rax
	je	.L448
	call	__stack_chk_fail@PLT
.L448:
	leave
	.cfi_def_cfa 7, 8
	ret
	.cfi_endproc
.LFE2867:
	.size	_ZL6doFreePv, .-_ZL6doFreePv
	.type	_ZL10incUnfreedm, @function
_ZL10incUnfreedm:
.LFB2868:
	.loc 3 1084 43
	.cfi_startproc
	endbr64
	pushq	%rbp
	.cfi_def_cfa_offset 16
	.cfi_offset 6, -16
	movq	%rsp, %rbp
	.cfi_def_cfa_register 6
	movq	%rdi, -8(%rbp)
	.loc 3 1085 30
	movq	_ZL11heapManager(%rip), %rax
	movq	3672(%rax), %rax
	movq	%rax, %rdx
	movq	-8(%rbp), %rax
	addq	%rax, %rdx
	movq	_ZL11heapManager(%rip), %rax
	movq	%rdx, 3672(%rax)
	.loc 3 1086 2
	nop
	popq	%rbp
	.cfi_def_cfa 7, 8
	ret
	.cfi_endproc
.LFE2868:
	.size	_ZL10incUnfreedm, .-_ZL10incUnfreedm
	.text
	.type	_ZL15memalignNoStatsmm, @function
_ZL15memalignNoStatsmm:
.LFB2869:
	.loc 3 1090 74
	.cfi_startproc
	pushq	%rbp
	.cfi_def_cfa_offset 16
	.cfi_offset 6, -16
	movq	%rsp, %rbp
	.cfi_def_cfa_register 6
	addq	$-128, %rsp
	movq	%rdi, -120(%rbp)
	movq	%rsi, -128(%rbp)
	movq	-120(%rbp), %rax
	movq	%rax, -64(%rbp)
.LBB1025:
.LBB1026:
	.loc 3 642 42
	cmpq	$15, -64(%rbp)
	setbe	%al
	.loc 3 642 24
	movzbl	%al, %eax
	testq	%rax, %rax
	jne	.L466
	movq	-64(%rbp), %rax
	movq	%rax, -56(%rbp)
.LBB1027:
.LBB1028:
	.loc 4 40 27
	movq	-56(%rbp), %rax
	subq	$1, %rax
	.loc 4 40 17
	andq	-56(%rbp), %rax
	.loc 4 40 38
	testq	%rax, %rax
	sete	%al
.LBE1028:
.LBE1027:
	.loc 3 642 62
	xorl	$1, %eax
	.loc 3 642 24
	movzbl	%al, %eax
	testq	%rax, %rax
	je	.L468
.L466:
	movl	$1, %eax
	jmp	.L469
.L468:
	movl	$0, %eax
.L469:
	movzbl	%al, %eax
	testq	%rax, %rax
	setne	%al
	.loc 3 642 2
	testb	%al, %al
	je	.L483
	.loc 3 643 8
	movq	-64(%rbp), %rax
	movl	$16, %edx
	movq	%rax, %rsi
	leaq	.LC36(%rip), %rax
	movq	%rax, %rdi
	movl	$0, %eax
	call	_Z5abortPKcz@PLT
.L483:
	.loc 3 645 2
	nop
.LBE1026:
.LBE1025:
	.loc 3 1094 42
	cmpq	$16, -120(%rbp)
	setbe	%al
	.loc 3 1094 24
	movzbl	%al, %eax
	testq	%rax, %rax
	jne	.L471
	.loc 3 1094 60 discriminator 2
	cmpq	$0, -128(%rbp)
	sete	%al
	.loc 3 1094 24 discriminator 2
	movzbl	%al, %eax
	testq	%rax, %rax
	je	.L472
.L471:
	.loc 3 1094 24 is_stmt 0 discriminator 3
	movl	$1, %eax
	jmp	.L473
.L472:
	.loc 3 1094 24 discriminator 4
	movl	$0, %eax
.L473:
	.loc 3 1094 24 discriminator 6
	movzbl	%al, %eax
	.loc 3 1094 2 is_stmt 1 discriminator 6
	testq	%rax, %rax
	je	.L474
	.loc 3 1094 91 discriminator 7
	movq	-128(%rbp), %rax
	movq	%rax, %rdi
	call	_ZL8doMallocm
	.loc 3 1094 98 discriminator 7
	jmp	.L475
.L474:
	.loc 3 1105 9
	movq	-120(%rbp), %rax
	movq	%rax, -104(%rbp)
	.loc 3 1106 36
	movq	-128(%rbp), %rdx
	movq	-104(%rbp), %rax
	addq	%rdx, %rax
	movq	%rax, %rdi
	call	_ZL8doMallocm
	movq	%rax, -96(%rbp)
	.loc 3 1109 59
	movq	-96(%rbp), %rax
	addq	$16, %rax
	movq	%rax, -48(%rbp)
	movq	-120(%rbp), %rax
	movq	%rax, -40(%rbp)
	movq	-40(%rbp), %rax
	movq	%rax, -32(%rbp)
.LBB1029:
.LBB1030:
.LBB1031:
.LBB1032:
.LBB1033:
	.loc 4 40 27
	movq	-32(%rbp), %rax
	subq	$1, %rax
	.loc 4 40 17
	andq	-32(%rbp), %rax
	.loc 4 40 38
	testq	%rax, %rax
	sete	%al
.LBE1033:
.LBE1032:
	.loc 4 56 7
	xorl	$1, %eax
	.loc 4 56 2
	testb	%al, %al
	je	.L477
.LBB1034:
	.loc 4 56 95
	movl	$50, %edx
	leaq	.LC1(%rip), %rax
	movq	%rax, %rsi
	movl	$2, %edi
	call	write@PLT
	.loc 4 56 84
	movl	%eax, -112(%rbp)
	.loc 4 56 173
	call	abort@PLT
.L477:
.LBE1034:
.LBE1031:
	.loc 4 58 18
	movq	-48(%rbp), %rax
	negq	%rax
	movq	%rax, -24(%rbp)
	movq	-40(%rbp), %rax
	movq	%rax, -16(%rbp)
	movq	-16(%rbp), %rax
	movq	%rax, -8(%rbp)
.LBB1035:
.LBB1036:
.LBB1037:
.LBB1038:
.LBB1039:
	.loc 4 40 27
	movq	-8(%rbp), %rax
	subq	$1, %rax
	.loc 4 40 17
	andq	-8(%rbp), %rax
	.loc 4 40 38
	testq	%rax, %rax
	sete	%al
.LBE1039:
.LBE1038:
	.loc 4 47 7
	xorl	$1, %eax
	.loc 4 47 2
	testb	%al, %al
	je	.L479
.LBB1040:
	.loc 4 47 95
	movl	$50, %edx
	leaq	.LC2(%rip), %rax
	movq	%rax, %rsi
	movl	$2, %edi
	call	write@PLT
	.loc 4 47 84
	movl	%eax, -108(%rbp)
	.loc 4 47 173
	call	abort@PLT
.L479:
.LBE1040:
.LBE1037:
	.loc 4 49 17
	movq	-16(%rbp), %rax
	negq	%rax
	.loc 4 49 19
	andq	-24(%rbp), %rax
.LBE1036:
.LBE1035:
	.loc 4 58 36
	negq	%rax
.LBE1030:
.LBE1029:
	.loc 3 1109 102
	movq	%rax, -88(%rbp)
	.loc 3 1112 30
	movq	-96(%rbp), %rax
	subq	$16, %rax
	movq	%rax, -80(%rbp)
	.loc 3 1113 35
	movq	-80(%rbp), %rax
	movq	-128(%rbp), %rdx
	movq	%rdx, 8(%rax)
	.loc 3 1114 13
	movq	-104(%rbp), %rax
	negq	%rax
	movq	%rax, %rdi
	call	_ZL10incUnfreedm
	.loc 3 1117 30
	movq	-88(%rbp), %rax
	subq	$16, %rax
	movq	%rax, -72(%rbp)
	.loc 3 1120 61
	movq	-72(%rbp), %rax
	subq	-80(%rbp), %rax
	movq	%rax, %rdx
	.loc 3 1120 37
	movq	-72(%rbp), %rax
	movq	%rdx, 8(%rax)
	.loc 3 1122 58
	movq	-120(%rbp), %rax
	orq	$1, %rax
	movq	%rax, %rdx
	.loc 3 1122 40
	movq	-72(%rbp), %rax
	movq	%rdx, (%rax)
	.loc 3 1124 9
	movq	-88(%rbp), %rax
.L475:
	.loc 3 1125 2
	leave
	.cfi_def_cfa 7, 8
	ret
	.cfi_endproc
.LFE2869:
	.size	_ZL15memalignNoStatsmm, .-_ZL15memalignNoStatsmm
	.globl	malloc
	.type	malloc, @function
malloc:
.LFB2870:
	.loc 3 1136 2
	.cfi_startproc
	.cfi_personality 0x9b,DW.ref.__gxx_personality_v0
	.cfi_lsda 0x1b,.LLSDA2870
	endbr64
	pushq	%rbp
	.cfi_def_cfa_offset 16
	.cfi_offset 6, -16
	movq	%rsp, %rbp
	.cfi_def_cfa_register 6
	subq	$16, %rsp
	movq	%rdi, -8(%rbp)
	.loc 3 1137 18
	movq	-8(%rbp), %rax
	movq	%rax, %rdi
	call	_ZL8doMallocm
	.loc 3 1138 2
	leave
	.cfi_def_cfa 7, 8
	ret
	.cfi_endproc
.LFE2870:
	.globl	__gxx_personality_v0
	.section	.gcc_except_table,"a",@progbits
.LLSDA2870:
	.byte	0xff
	.byte	0xff
	.byte	0x1
	.uleb128 .LLSDACSE2870-.LLSDACSB2870
.LLSDACSB2870:
.LLSDACSE2870:
	.text
	.size	malloc, .-malloc
	.globl	aalloc
	.type	aalloc, @function
aalloc:
.LFB2871:
	.loc 3 1142 2
	.cfi_startproc
	.cfi_personality 0x9b,DW.ref.__gxx_personality_v0
	.cfi_lsda 0x1b,.LLSDA2871
	endbr64
	pushq	%rbp
	.cfi_def_cfa_offset 16
	.cfi_offset 6, -16
	movq	%rsp, %rbp
	.cfi_def_cfa_register 6
	subq	$16, %rsp
	movq	%rdi, -8(%rbp)
	movq	%rsi, -16(%rbp)
	.loc 3 1143 18
	movq	-8(%rbp), %rax
	imulq	-16(%rbp), %rax
	movq	%rax, %rdi
	call	_ZL8doMallocm
	.loc 3 1144 2
	leave
	.cfi_def_cfa 7, 8
	ret
	.cfi_endproc
.LFE2871:
	.section	.gcc_except_table
.LLSDA2871:
	.byte	0xff
	.byte	0xff
	.byte	0x1
	.uleb128 .LLSDACSE2871-.LLSDACSB2871
.LLSDACSB2871:
.LLSDACSE2871:
	.text
	.size	aalloc, .-aalloc
	.section	.rodata
.LC43:
	.string	"calloc"
	.text
	.globl	calloc
	.type	calloc, @function
calloc:
.LFB2872:
	.loc 3 1148 2
	.cfi_startproc
	.cfi_personality 0x9b,DW.ref.__gxx_personality_v0
	.cfi_lsda 0x1b,.LLSDA2872
	endbr64
	pushq	%rbp
	.cfi_def_cfa_offset 16
	.cfi_offset 6, -16
	movq	%rsp, %rbp
	.cfi_def_cfa_register 6
	subq	$176, %rsp
	movq	%rdi, -168(%rbp)
	movq	%rsi, -176(%rbp)
	.loc 3 1148 2
	movq	%fs:40, %rax
	movq	%rax, -8(%rbp)
	xorl	%eax, %eax
	.loc 3 1149 9
	movq	-168(%rbp), %rax
	imulq	-176(%rbp), %rax
	movq	%rax, -112(%rbp)
	.loc 3 1150 36
	movq	-112(%rbp), %rax
	movq	%rax, %rdi
	call	_ZL8doMallocm
	movq	%rax, -104(%rbp)
	.loc 3 1152 26
	cmpq	$0, -104(%rbp)
	sete	%al
	.loc 3 1152 24
	movzbl	%al, %eax
	.loc 3 1152 2
	testq	%rax, %rax
	je	.L489
	.loc 3 1152 2 discriminator 1
	movl	$0, %eax
	jmp	.L515
.L489:
	leaq	.LC43(%rip), %rax
	movq	%rax, -96(%rbp)
	movq	-104(%rbp), %rax
	movq	%rax, -88(%rbp)
.LBB1041:
.LBB1042:
	.loc 3 689 13
	movq	-88(%rbp), %rax
	subq	$16, %rax
	.loc 3 689 9
	movq	%rax, -144(%rbp)
	.loc 3 691 16
	movq	-144(%rbp), %rdx
	.loc 3 691 38
	movq	8+_ZL10heapMaster(%rip), %rax
	.loc 3 691 14
	cmpq	%rax, %rdx
	setb	%al
	movzbl	%al, %eax
	movb	%al, -150(%rbp)
	andb	$1, -150(%rbp)
	movq	-96(%rbp), %rax
	movq	%rax, -80(%rbp)
	movq	-88(%rbp), %rax
	movq	%rax, -72(%rbp)
.LBB1043:
.LBB1044:
	.loc 3 650 24
	movzbl	-150(%rbp), %eax
	.loc 3 650 2
	testq	%rax, %rax
	je	.L521
	.loc 3 651 8
	movq	-72(%rbp), %rdx
	movq	-80(%rbp), %rax
	movq	%rax, %rsi
	leaq	.LC35(%rip), %rax
	movq	%rax, %rdi
	movl	$0, %eax
	call	_Z5abortPKcz@PLT
.L521:
	.loc 3 655 2
	nop
.LBE1044:
.LBE1043:
.LBB1045:
	.loc 3 693 40
	movq	-144(%rbp), %rax
	.loc 3 693 66
	movq	(%rax), %rax
	.loc 3 693 76
	andl	$7, %eax
	.loc 3 693 26
	testq	%rax, %rax
	sete	%al
	.loc 3 693 24
	movzbl	%al, %eax
	.loc 3 693 2
	testq	%rax, %rax
	je	.L492
	.loc 3 694 13
	movq	-144(%rbp), %rax
	.loc 3 694 37
	movq	(%rax), %rax
	.loc 3 694 11
	movq	%rax, -136(%rbp)
	.loc 3 695 12
	movq	$16, -120(%rbp)
	jmp	.L493
.L492:
	leaq	-144(%rbp), %rax
	movq	%rax, -64(%rbp)
	leaq	-120(%rbp), %rax
	movq	%rax, -56(%rbp)
.LBB1046:
.LBB1047:
.LBB1048:
	.loc 3 676 40
	movq	-64(%rbp), %rax
	movq	(%rax), %rax
	.loc 3 676 66
	movq	(%rax), %rax
	.loc 3 676 78
	andl	$1, %eax
	.loc 3 676 26
	testq	%rax, %rax
	setne	%al
	.loc 3 676 24
	movzbl	%al, %eax
	.loc 3 676 2
	testq	%rax, %rax
	je	.L494
	.loc 3 677 20
	movq	-64(%rbp), %rax
	movq	(%rax), %rax
	.loc 3 677 46
	movq	(%rax), %rax
	.loc 3 677 58
	andq	$-2, %rax
	movq	%rax, %rdx
	.loc 3 677 12
	movq	-56(%rbp), %rax
	movq	%rdx, (%rax)
	.loc 3 678 13
	movq	-56(%rbp), %rax
	movq	(%rax), %rax
	movq	%rax, -48(%rbp)
.LBB1049:
.LBB1050:
	.loc 3 642 42
	cmpq	$15, -48(%rbp)
	setbe	%al
	.loc 3 642 24
	movzbl	%al, %eax
	testq	%rax, %rax
	jne	.L495
	movq	-48(%rbp), %rax
	movq	%rax, -40(%rbp)
.LBB1051:
.LBB1052:
	.loc 4 40 27
	movq	-40(%rbp), %rax
	subq	$1, %rax
	.loc 4 40 17
	andq	-40(%rbp), %rax
	.loc 4 40 38
	testq	%rax, %rax
	sete	%al
.LBE1052:
.LBE1051:
	.loc 3 642 62
	xorl	$1, %eax
	.loc 3 642 24
	movzbl	%al, %eax
	testq	%rax, %rax
	je	.L497
.L495:
	movl	$1, %eax
	jmp	.L498
.L497:
	movl	$0, %eax
.L498:
	movzbl	%al, %eax
	testq	%rax, %rax
	setne	%al
	.loc 3 642 2
	testb	%al, %al
	je	.L522
	.loc 3 643 8
	movq	-48(%rbp), %rax
	movl	$16, %edx
	movq	%rax, %rsi
	leaq	.LC36(%rip), %rax
	movq	%rax, %rdi
	movl	$0, %eax
	call	_Z5abortPKcz@PLT
.L522:
	.loc 3 645 2
	nop
.LBE1050:
.LBE1049:
	.loc 3 679 58
	movq	-64(%rbp), %rax
	movq	(%rax), %rdx
	.loc 3 679 67
	movq	-64(%rbp), %rax
	movq	(%rax), %rax
	.loc 3 679 91
	movq	8(%rax), %rax
	.loc 3 679 65
	negq	%rax
	.loc 3 679 13
	addq	%rax, %rdx
	.loc 3 679 9
	movq	-64(%rbp), %rax
	movq	%rdx, (%rax)
	.loc 3 683 2
	jmp	.L523
.L494:
	.loc 3 681 12
	movq	-56(%rbp), %rax
	movq	$16, (%rax)
.L523:
	.loc 3 683 2
	nop
.LBE1048:
.LBE1047:
.LBB1053:
	.loc 3 698 40
	movq	-144(%rbp), %rax
	.loc 3 698 66
	movq	(%rax), %rax
	.loc 3 698 78
	andl	$4, %eax
	.loc 3 698 26
	testq	%rax, %rax
	setne	%al
	.loc 3 698 24
	movzbl	%al, %eax
	.loc 3 698 2
	testq	%rax, %rax
	je	.L501
.LBB1054:
.LBB1055:
	.loc 3 699 22
	movq	8+_ZL10heapMaster(%rip), %rax
	.loc 3 699 2
	cmpq	%rax, -88(%rbp)
	jb	.L502
	.loc 3 699 48
	movq	16+_ZL10heapMaster(%rip), %rax
	.loc 3 699 7
	cmpq	%rax, -88(%rbp)
	ja	.L502
.LBB1056:
	.loc 3 699 70
	movl	$137, %edx
	leaq	.LC37(%rip), %rax
	movq	%rax, %rsi
	movl	$2, %edi
	call	write@PLT
	.loc 3 699 59
	movl	%eax, -148(%rbp)
	.loc 3 699 419
	call	abort@PLT
.L502:
.LBE1056:
.LBE1055:
	.loc 3 700 78
	movq	-144(%rbp), %rax
	.loc 3 700 102
	movq	(%rax), %rax
	.loc 3 700 114
	andq	$-8, %rax
	.loc 3 700 7
	movq	%rax, -128(%rbp)
	.loc 3 701 9
	jmp	.L503
.L501:
.LBE1054:
.LBE1053:
	.loc 3 704 77
	movq	-144(%rbp), %rax
	.loc 3 704 101
	movq	(%rax), %rax
	.loc 3 704 108
	andq	$-8, %rax
	.loc 3 704 11
	movq	%rax, -136(%rbp)
.L493:
.LBE1046:
.LBE1045:
	.loc 3 706 9
	movq	-136(%rbp), %rax
	.loc 3 706 21
	movq	32(%rax), %rax
	.loc 3 706 7
	movq	%rax, -128(%rbp)
	.loc 3 709 16
	movq	-144(%rbp), %rdx
	.loc 3 709 38
	movq	8+_ZL10heapMaster(%rip), %rax
	.loc 3 709 48
	cmpq	%rax, %rdx
	jb	.L504
	.loc 3 709 64
	movq	16+_ZL10heapMaster(%rip), %rdx
	.loc 3 709 74
	movq	-144(%rbp), %rax
	.loc 3 709 48
	cmpq	%rax, %rdx
	jnb	.L505
.L504:
	movl	$1, %eax
	jmp	.L506
.L505:
	movl	$0, %eax
.L506:
	.loc 3 709 14
	movzbl	%al, %eax
	movb	%al, -149(%rbp)
	andb	$1, -149(%rbp)
	movq	-96(%rbp), %rax
	movq	%rax, -32(%rbp)
	movq	-88(%rbp), %rax
	movq	%rax, -24(%rbp)
.LBB1057:
.LBB1058:
	.loc 3 650 24
	movzbl	-149(%rbp), %eax
	.loc 3 650 2
	testq	%rax, %rax
	je	.L524
	.loc 3 651 8
	movq	-24(%rbp), %rdx
	movq	-32(%rbp), %rax
	movq	%rax, %rsi
	leaq	.LC35(%rip), %rax
	movq	%rax, %rdi
	movl	$0, %eax
	call	_Z5abortPKcz@PLT
.L524:
	.loc 3 655 2
	nop
.LBE1058:
.LBE1057:
	.loc 3 712 32
	movq	-136(%rbp), %rax
	.loc 3 712 41
	testq	%rax, %rax
	sete	%al
	.loc 3 712 24
	movzbl	%al, %eax
	testq	%rax, %rax
	jne	.L508
	.loc 3 712 71
	movq	-136(%rbp), %rax
	.loc 3 712 69
	movq	24(%rax), %rax
	movq	%rax, -16(%rbp)
	.loc 3 712 97
	movq	-136(%rbp), %rdx
	.loc 3 712 108
	movq	-16(%rbp), %rax
	.loc 3 712 141
	cmpq	%rax, %rdx
	jb	.L509
	.loc 3 712 144
	movq	-16(%rbp), %rax
	leaq	3640(%rax), %rdx
	.loc 3 712 200
	movq	-136(%rbp), %rax
	.loc 3 712 141
	cmpq	%rax, %rdx
	ja	.L510
.L509:
	movl	$1, %eax
	jmp	.L511
.L510:
	movl	$0, %eax
.L511:
	.loc 3 712 24
	movzbl	%al, %eax
	testq	%rax, %rax
	je	.L512
.L508:
	movl	$1, %eax
	jmp	.L513
.L512:
	movl	$0, %eax
.L513:
	movzbl	%al, %eax
	testq	%rax, %rax
	setne	%al
	.loc 3 712 2
	testb	%al, %al
	je	.L525
	.loc 3 716 8
	movq	-88(%rbp), %rdx
	movq	-96(%rbp), %rax
	movq	%rax, %rsi
	leaq	.LC38(%rip), %rax
	movq	%rax, %rdi
	movl	$0, %eax
	call	_Z5abortPKcz@PLT
.L525:
	.loc 3 722 9
	nop
.L503:
.LBE1042:
.LBE1041:
	.loc 3 1169 9
	movq	-112(%rbp), %rdx
	movq	-104(%rbp), %rax
	movl	$0, %esi
	movq	%rax, %rdi
	call	memset@PLT
	.loc 3 1171 42
	movq	-144(%rbp), %rax
	movq	(%rax), %rdx
	movq	-144(%rbp), %rax
	orq	$2, %rdx
	movq	%rdx, (%rax)
	.loc 3 1172 9
	movq	-104(%rbp), %rax
.L515:
	.loc 3 1173 2 discriminator 1
	movq	-8(%rbp), %rdx
	subq	%fs:40, %rdx
	je	.L516
	.loc 3 1173 2 is_stmt 0
	call	__stack_chk_fail@PLT
.L516:
	leave
	.cfi_def_cfa 7, 8
	ret
	.cfi_endproc
.LFE2872:
	.section	.gcc_except_table
.LLSDA2872:
	.byte	0xff
	.byte	0xff
	.byte	0x1
	.uleb128 .LLSDACSE2872-.LLSDACSB2872
.LLSDACSB2872:
.LLSDACSE2872:
	.text
	.size	calloc, .-calloc
	.section	.rodata
.LC44:
	.string	"resize"
	.text
	.globl	resize
	.type	resize, @function
resize:
.LFB2873:
	.loc 3 1180 2 is_stmt 1
	.cfi_startproc
	.cfi_personality 0x9b,DW.ref.__gxx_personality_v0
	.cfi_lsda 0x1b,.LLSDA2873
	endbr64
	pushq	%rbp
	.cfi_def_cfa_offset 16
	.cfi_offset 6, -16
	movq	%rsp, %rbp
	.cfi_def_cfa_register 6
	subq	$160, %rsp
	movq	%rdi, -152(%rbp)
	movq	%rsi, -160(%rbp)
	.loc 3 1180 2
	movq	%fs:40, %rax
	movq	%rax, -8(%rbp)
	xorl	%eax, %eax
	.loc 3 1181 26
	cmpq	$0, -152(%rbp)
	sete	%al
	.loc 3 1181 24
	movzbl	%al, %eax
	.loc 3 1181 2
	testq	%rax, %rax
	je	.L527
	.loc 3 1182 18
	movq	-160(%rbp), %rax
	movq	%rax, %rdi
	call	_ZL8doMallocm
	.loc 3 1182 25
	jmp	.L557
.L527:
	.loc 3 1185 26
	movzbl	_ZN13uKernelModule23kernelModuleInitializedE(%rip), %eax
	xorl	$1, %eax
	.loc 3 1185 24
	movzbl	%al, %eax
	.loc 3 1185 2
	testq	%rax, %rax
	je	.L529
	.loc 3 1185 112 discriminator 1
	call	_ZN13uKernelModule7startupEv@PLT
	.loc 3 1185 134 discriminator 1
	call	_Z15heapManagerCtorv
.L529:
	.loc 3 1185 168 discriminator 3
	cmpq	$0, -160(%rbp)
	sete	%al
	.loc 3 1185 166 discriminator 3
	movzbl	%al, %eax
	.loc 3 1185 144 discriminator 3
	testq	%rax, %rax
	jne	.L530
	.loc 3 1185 214 discriminator 5
	cmpq	$-17, -160(%rbp)
	seta	%al
	.loc 3 1185 212 discriminator 5
	movzbl	%al, %eax
	.loc 3 1185 192 discriminator 5
	testq	%rax, %rax
	je	.L531
.L530:
	.loc 3 1185 52 discriminator 6
	movq	-152(%rbp), %rax
	movq	%rax, %rdi
	call	_ZL6doFreePv
	.loc 3 1185 71 discriminator 6
	movl	$0, %eax
	jmp	.L557
.L531:
	leaq	.LC44(%rip), %rax
	movq	%rax, -96(%rbp)
	movq	-152(%rbp), %rax
	movq	%rax, -88(%rbp)
.LBB1059:
.LBB1060:
	.loc 3 689 13
	movq	-88(%rbp), %rax
	subq	$16, %rax
	.loc 3 689 9
	movq	%rax, -136(%rbp)
	.loc 3 691 16
	movq	-136(%rbp), %rdx
	.loc 3 691 38
	movq	8+_ZL10heapMaster(%rip), %rax
	.loc 3 691 14
	cmpq	%rax, %rdx
	setb	%al
	movzbl	%al, %eax
	movb	%al, -142(%rbp)
	andb	$1, -142(%rbp)
	movq	-96(%rbp), %rax
	movq	%rax, -80(%rbp)
	movq	-88(%rbp), %rax
	movq	%rax, -72(%rbp)
.LBB1061:
.LBB1062:
	.loc 3 650 24
	movzbl	-142(%rbp), %eax
	.loc 3 650 2
	testq	%rax, %rax
	je	.L563
	.loc 3 651 8
	movq	-72(%rbp), %rdx
	movq	-80(%rbp), %rax
	movq	%rax, %rsi
	leaq	.LC35(%rip), %rax
	movq	%rax, %rdi
	movl	$0, %eax
	call	_Z5abortPKcz@PLT
.L563:
	.loc 3 655 2
	nop
.LBE1062:
.LBE1061:
.LBB1063:
	.loc 3 693 40
	movq	-136(%rbp), %rax
	.loc 3 693 66
	movq	(%rax), %rax
	.loc 3 693 76
	andl	$7, %eax
	.loc 3 693 26
	testq	%rax, %rax
	sete	%al
	.loc 3 693 24
	movzbl	%al, %eax
	.loc 3 693 2
	testq	%rax, %rax
	je	.L533
	.loc 3 694 13
	movq	-136(%rbp), %rax
	.loc 3 694 37
	movq	(%rax), %rax
	.loc 3 694 11
	movq	%rax, -128(%rbp)
	.loc 3 695 12
	movq	$16, -112(%rbp)
	jmp	.L534
.L533:
	leaq	-136(%rbp), %rax
	movq	%rax, -64(%rbp)
	leaq	-112(%rbp), %rax
	movq	%rax, -56(%rbp)
.LBB1064:
.LBB1065:
.LBB1066:
	.loc 3 676 40
	movq	-64(%rbp), %rax
	movq	(%rax), %rax
	.loc 3 676 66
	movq	(%rax), %rax
	.loc 3 676 78
	andl	$1, %eax
	.loc 3 676 26
	testq	%rax, %rax
	setne	%al
	.loc 3 676 24
	movzbl	%al, %eax
	.loc 3 676 2
	testq	%rax, %rax
	je	.L535
	.loc 3 677 20
	movq	-64(%rbp), %rax
	movq	(%rax), %rax
	.loc 3 677 46
	movq	(%rax), %rax
	.loc 3 677 58
	andq	$-2, %rax
	movq	%rax, %rdx
	.loc 3 677 12
	movq	-56(%rbp), %rax
	movq	%rdx, (%rax)
	.loc 3 678 13
	movq	-56(%rbp), %rax
	movq	(%rax), %rax
	movq	%rax, -48(%rbp)
.LBB1067:
.LBB1068:
	.loc 3 642 42
	cmpq	$15, -48(%rbp)
	setbe	%al
	.loc 3 642 24
	movzbl	%al, %eax
	testq	%rax, %rax
	jne	.L536
	movq	-48(%rbp), %rax
	movq	%rax, -40(%rbp)
.LBB1069:
.LBB1070:
	.loc 4 40 27
	movq	-40(%rbp), %rax
	subq	$1, %rax
	.loc 4 40 17
	andq	-40(%rbp), %rax
	.loc 4 40 38
	testq	%rax, %rax
	sete	%al
.LBE1070:
.LBE1069:
	.loc 3 642 62
	xorl	$1, %eax
	.loc 3 642 24
	movzbl	%al, %eax
	testq	%rax, %rax
	je	.L538
.L536:
	movl	$1, %eax
	jmp	.L539
.L538:
	movl	$0, %eax
.L539:
	movzbl	%al, %eax
	testq	%rax, %rax
	setne	%al
	.loc 3 642 2
	testb	%al, %al
	je	.L564
	.loc 3 643 8
	movq	-48(%rbp), %rax
	movl	$16, %edx
	movq	%rax, %rsi
	leaq	.LC36(%rip), %rax
	movq	%rax, %rdi
	movl	$0, %eax
	call	_Z5abortPKcz@PLT
.L564:
	.loc 3 645 2
	nop
.LBE1068:
.LBE1067:
	.loc 3 679 58
	movq	-64(%rbp), %rax
	movq	(%rax), %rdx
	.loc 3 679 67
	movq	-64(%rbp), %rax
	movq	(%rax), %rax
	.loc 3 679 91
	movq	8(%rax), %rax
	.loc 3 679 65
	negq	%rax
	.loc 3 679 13
	addq	%rax, %rdx
	.loc 3 679 9
	movq	-64(%rbp), %rax
	movq	%rdx, (%rax)
	.loc 3 683 2
	jmp	.L565
.L535:
	.loc 3 681 12
	movq	-56(%rbp), %rax
	movq	$16, (%rax)
.L565:
	.loc 3 683 2
	nop
.LBE1066:
.LBE1065:
.LBB1071:
	.loc 3 698 40
	movq	-136(%rbp), %rax
	.loc 3 698 66
	movq	(%rax), %rax
	.loc 3 698 78
	andl	$4, %eax
	.loc 3 698 26
	testq	%rax, %rax
	setne	%al
	.loc 3 698 24
	movzbl	%al, %eax
	.loc 3 698 2
	testq	%rax, %rax
	je	.L542
.LBB1072:
.LBB1073:
	.loc 3 699 22
	movq	8+_ZL10heapMaster(%rip), %rax
	.loc 3 699 2
	cmpq	%rax, -88(%rbp)
	jb	.L543
	.loc 3 699 48
	movq	16+_ZL10heapMaster(%rip), %rax
	.loc 3 699 7
	cmpq	%rax, -88(%rbp)
	ja	.L543
.LBB1074:
	.loc 3 699 70
	movl	$137, %edx
	leaq	.LC37(%rip), %rax
	movq	%rax, %rsi
	movl	$2, %edi
	call	write@PLT
	.loc 3 699 59
	movl	%eax, -140(%rbp)
	.loc 3 699 419
	call	abort@PLT
.L543:
.LBE1074:
.LBE1073:
	.loc 3 700 78
	movq	-136(%rbp), %rax
	.loc 3 700 102
	movq	(%rax), %rax
	.loc 3 700 114
	andq	$-8, %rax
	.loc 3 700 7
	movq	%rax, -120(%rbp)
	.loc 3 701 9
	jmp	.L544
.L542:
.LBE1072:
.LBE1071:
	.loc 3 704 77
	movq	-136(%rbp), %rax
	.loc 3 704 101
	movq	(%rax), %rax
	.loc 3 704 108
	andq	$-8, %rax
	.loc 3 704 11
	movq	%rax, -128(%rbp)
.L534:
.LBE1064:
.LBE1063:
	.loc 3 706 9
	movq	-128(%rbp), %rax
	.loc 3 706 21
	movq	32(%rax), %rax
	.loc 3 706 7
	movq	%rax, -120(%rbp)
	.loc 3 709 16
	movq	-136(%rbp), %rdx
	.loc 3 709 38
	movq	8+_ZL10heapMaster(%rip), %rax
	.loc 3 709 48
	cmpq	%rax, %rdx
	jb	.L545
	.loc 3 709 64
	movq	16+_ZL10heapMaster(%rip), %rdx
	.loc 3 709 74
	movq	-136(%rbp), %rax
	.loc 3 709 48
	cmpq	%rax, %rdx
	jnb	.L546
.L545:
	movl	$1, %eax
	jmp	.L547
.L546:
	movl	$0, %eax
.L547:
	.loc 3 709 14
	movzbl	%al, %eax
	movb	%al, -141(%rbp)
	andb	$1, -141(%rbp)
	movq	-96(%rbp), %rax
	movq	%rax, -32(%rbp)
	movq	-88(%rbp), %rax
	movq	%rax, -24(%rbp)
.LBB1075:
.LBB1076:
	.loc 3 650 24
	movzbl	-141(%rbp), %eax
	.loc 3 650 2
	testq	%rax, %rax
	je	.L566
	.loc 3 651 8
	movq	-24(%rbp), %rdx
	movq	-32(%rbp), %rax
	movq	%rax, %rsi
	leaq	.LC35(%rip), %rax
	movq	%rax, %rdi
	movl	$0, %eax
	call	_Z5abortPKcz@PLT
.L566:
	.loc 3 655 2
	nop
.LBE1076:
.LBE1075:
	.loc 3 712 32
	movq	-128(%rbp), %rax
	.loc 3 712 41
	testq	%rax, %rax
	sete	%al
	.loc 3 712 24
	movzbl	%al, %eax
	testq	%rax, %rax
	jne	.L549
	.loc 3 712 71
	movq	-128(%rbp), %rax
	.loc 3 712 69
	movq	24(%rax), %rax
	movq	%rax, -16(%rbp)
	.loc 3 712 97
	movq	-128(%rbp), %rdx
	.loc 3 712 108
	movq	-16(%rbp), %rax
	.loc 3 712 141
	cmpq	%rax, %rdx
	jb	.L550
	.loc 3 712 144
	movq	-16(%rbp), %rax
	leaq	3640(%rax), %rdx
	.loc 3 712 200
	movq	-128(%rbp), %rax
	.loc 3 712 141
	cmpq	%rax, %rdx
	ja	.L551
.L550:
	movl	$1, %eax
	jmp	.L552
.L551:
	movl	$0, %eax
.L552:
	.loc 3 712 24
	movzbl	%al, %eax
	testq	%rax, %rax
	je	.L553
.L549:
	movl	$1, %eax
	jmp	.L554
.L553:
	movl	$0, %eax
.L554:
	movzbl	%al, %eax
	testq	%rax, %rax
	setne	%al
	.loc 3 712 2
	testb	%al, %al
	je	.L567
	.loc 3 716 8
	movq	-88(%rbp), %rdx
	movq	-96(%rbp), %rax
	movq	%rax, %rsi
	leaq	.LC38(%rip), %rax
	movq	%rax, %rdi
	movl	$0, %eax
	call	_Z5abortPKcz@PLT
.L567:
	.loc 3 722 9
	nop
.L544:
.LBE1060:
.LBE1059:
	.loc 3 1192 26
	movq	-120(%rbp), %rax
	.loc 3 1192 49
	movq	-136(%rbp), %rcx
	.loc 3 1192 47
	movq	-152(%rbp), %rdx
	subq	%rcx, %rdx
	.loc 3 1192 9
	subq	%rdx, %rax
	movq	%rax, -104(%rbp)
	.loc 3 1194 14
	movq	-112(%rbp), %rax
	.loc 3 1194 2
	cmpq	$16, %rax
	jne	.L556
	.loc 3 1194 24 discriminator 1
	movq	-160(%rbp), %rax
	cmpq	-104(%rbp), %rax
	ja	.L556
	.loc 3 1194 60 discriminator 2
	movq	-160(%rbp), %rax
	addq	%rax, %rax
	.loc 3 1194 42 discriminator 2
	cmpq	%rax, -104(%rbp)
	ja	.L556
	.loc 3 1195 48
	movq	-136(%rbp), %rax
	movq	(%rax), %rdx
	movq	-136(%rbp), %rax
	andq	$-3, %rdx
	movq	%rdx, (%rax)
	.loc 3 1197 46
	movq	-136(%rbp), %rax
	movq	8(%rax), %rdx
	.loc 3 1197 13
	movq	-160(%rbp), %rax
	subq	%rdx, %rax
	movq	%rax, %rdi
	call	_ZL10incUnfreedm
	.loc 3 1199 26
	movq	-136(%rbp), %rax
	.loc 3 1199 31
	movq	-160(%rbp), %rdx
	movq	%rdx, 8(%rax)
	.loc 3 1203 9
	movq	-152(%rbp), %rax
	jmp	.L557
.L556:
	.loc 3 1207 9
	movq	-152(%rbp), %rax
	movq	%rax, %rdi
	call	_ZL6doFreePv
	.loc 3 1209 18
	movq	-160(%rbp), %rax
	movq	%rax, %rdi
	call	_ZL8doMallocm
	.loc 3 1209 25
	nop
.L557:
	.loc 3 1210 2 discriminator 1
	movq	-8(%rbp), %rdx
	subq	%fs:40, %rdx
	je	.L558
	.loc 3 1210 2 is_stmt 0
	call	__stack_chk_fail@PLT
.L558:
	leave
	.cfi_def_cfa 7, 8
	ret
	.cfi_endproc
.LFE2873:
	.section	.gcc_except_table
.LLSDA2873:
	.byte	0xff
	.byte	0xff
	.byte	0x1
	.uleb128 .LLSDACSE2873-.LLSDACSB2873
.LLSDACSB2873:
.LLSDACSE2873:
	.text
	.size	resize, .-resize
	.section	.rodata
.LC45:
	.string	"realloc"
	.text
	.globl	realloc
	.type	realloc, @function
realloc:
.LFB2874:
	.loc 3 1215 2 is_stmt 1
	.cfi_startproc
	.cfi_personality 0x9b,DW.ref.__gxx_personality_v0
	.cfi_lsda 0x1b,.LLSDA2874
	endbr64
	pushq	%rbp
	.cfi_def_cfa_offset 16
	.cfi_offset 6, -16
	movq	%rsp, %rbp
	.cfi_def_cfa_register 6
	subq	$272, %rsp
	movq	%rdi, -264(%rbp)
	movq	%rsi, -272(%rbp)
	.loc 3 1215 2
	movq	%fs:40, %rax
	movq	%rax, -8(%rbp)
	xorl	%eax, %eax
	.loc 3 1216 26
	cmpq	$0, -264(%rbp)
	sete	%al
	.loc 3 1216 24
	movzbl	%al, %eax
	.loc 3 1216 2
	testq	%rax, %rax
	je	.L569
	.loc 3 1217 18
	movq	-272(%rbp), %rax
	movq	%rax, %rdi
	call	_ZL8doMallocm
	.loc 3 1217 25
	jmp	.L629
.L569:
	.loc 3 1220 26
	movzbl	_ZN13uKernelModule23kernelModuleInitializedE(%rip), %eax
	xorl	$1, %eax
	.loc 3 1220 24
	movzbl	%al, %eax
	.loc 3 1220 2
	testq	%rax, %rax
	je	.L571
	.loc 3 1220 112 discriminator 1
	call	_ZN13uKernelModule7startupEv@PLT
	.loc 3 1220 134 discriminator 1
	call	_Z15heapManagerCtorv
.L571:
	.loc 3 1220 168 discriminator 3
	cmpq	$0, -272(%rbp)
	sete	%al
	.loc 3 1220 166 discriminator 3
	movzbl	%al, %eax
	.loc 3 1220 144 discriminator 3
	testq	%rax, %rax
	jne	.L572
	.loc 3 1220 214 discriminator 5
	cmpq	$-17, -272(%rbp)
	seta	%al
	.loc 3 1220 212 discriminator 5
	movzbl	%al, %eax
	.loc 3 1220 192 discriminator 5
	testq	%rax, %rax
	je	.L573
.L572:
	.loc 3 1220 52 discriminator 6
	movq	-264(%rbp), %rax
	movq	%rax, %rdi
	call	_ZL6doFreePv
	.loc 3 1220 71 discriminator 6
	movl	$0, %eax
	jmp	.L629
.L573:
	leaq	.LC45(%rip), %rax
	movq	%rax, -184(%rbp)
	movq	-264(%rbp), %rax
	movq	%rax, -176(%rbp)
.LBB1077:
.LBB1078:
	.loc 3 689 13
	movq	-176(%rbp), %rax
	subq	$16, %rax
	.loc 3 689 9
	movq	%rax, -240(%rbp)
	.loc 3 691 16
	movq	-240(%rbp), %rdx
	.loc 3 691 38
	movq	8+_ZL10heapMaster(%rip), %rax
	.loc 3 691 14
	cmpq	%rax, %rdx
	setb	%al
	movzbl	%al, %eax
	movb	%al, -252(%rbp)
	andb	$1, -252(%rbp)
	movq	-184(%rbp), %rax
	movq	%rax, -168(%rbp)
	movq	-176(%rbp), %rax
	movq	%rax, -160(%rbp)
.LBB1079:
.LBB1080:
	.loc 3 650 24
	movzbl	-252(%rbp), %eax
	.loc 3 650 2
	testq	%rax, %rax
	je	.L639
	.loc 3 651 8
	movq	-160(%rbp), %rdx
	movq	-168(%rbp), %rax
	movq	%rax, %rsi
	leaq	.LC35(%rip), %rax
	movq	%rax, %rdi
	movl	$0, %eax
	call	_Z5abortPKcz@PLT
.L639:
	.loc 3 655 2
	nop
.LBE1080:
.LBE1079:
.LBB1081:
	.loc 3 693 40
	movq	-240(%rbp), %rax
	.loc 3 693 66
	movq	(%rax), %rax
	.loc 3 693 76
	andl	$7, %eax
	.loc 3 693 26
	testq	%rax, %rax
	sete	%al
	.loc 3 693 24
	movzbl	%al, %eax
	.loc 3 693 2
	testq	%rax, %rax
	je	.L575
	.loc 3 694 13
	movq	-240(%rbp), %rax
	.loc 3 694 37
	movq	(%rax), %rax
	.loc 3 694 11
	movq	%rax, -232(%rbp)
	.loc 3 695 12
	movq	$16, -216(%rbp)
	jmp	.L576
.L575:
	leaq	-240(%rbp), %rax
	movq	%rax, -152(%rbp)
	leaq	-216(%rbp), %rax
	movq	%rax, -144(%rbp)
.LBB1082:
.LBB1083:
.LBB1084:
	.loc 3 676 40
	movq	-152(%rbp), %rax
	movq	(%rax), %rax
	.loc 3 676 66
	movq	(%rax), %rax
	.loc 3 676 78
	andl	$1, %eax
	.loc 3 676 26
	testq	%rax, %rax
	setne	%al
	.loc 3 676 24
	movzbl	%al, %eax
	.loc 3 676 2
	testq	%rax, %rax
	je	.L577
	.loc 3 677 20
	movq	-152(%rbp), %rax
	movq	(%rax), %rax
	.loc 3 677 46
	movq	(%rax), %rax
	.loc 3 677 58
	andq	$-2, %rax
	movq	%rax, %rdx
	.loc 3 677 12
	movq	-144(%rbp), %rax
	movq	%rdx, (%rax)
	.loc 3 678 13
	movq	-144(%rbp), %rax
	movq	(%rax), %rax
	movq	%rax, -136(%rbp)
.LBB1085:
.LBB1086:
	.loc 3 642 42
	cmpq	$15, -136(%rbp)
	setbe	%al
	.loc 3 642 24
	movzbl	%al, %eax
	testq	%rax, %rax
	jne	.L578
	movq	-136(%rbp), %rax
	movq	%rax, -128(%rbp)
.LBB1087:
.LBB1088:
	.loc 4 40 27
	movq	-128(%rbp), %rax
	subq	$1, %rax
	.loc 4 40 17
	andq	-128(%rbp), %rax
	.loc 4 40 38
	testq	%rax, %rax
	sete	%al
.LBE1088:
.LBE1087:
	.loc 3 642 62
	xorl	$1, %eax
	.loc 3 642 24
	movzbl	%al, %eax
	testq	%rax, %rax
	je	.L580
.L578:
	movl	$1, %eax
	jmp	.L581
.L580:
	movl	$0, %eax
.L581:
	movzbl	%al, %eax
	testq	%rax, %rax
	setne	%al
	.loc 3 642 2
	testb	%al, %al
	je	.L640
	.loc 3 643 8
	movq	-136(%rbp), %rax
	movl	$16, %edx
	movq	%rax, %rsi
	leaq	.LC36(%rip), %rax
	movq	%rax, %rdi
	movl	$0, %eax
	call	_Z5abortPKcz@PLT
.L640:
	.loc 3 645 2
	nop
.LBE1086:
.LBE1085:
	.loc 3 679 58
	movq	-152(%rbp), %rax
	movq	(%rax), %rdx
	.loc 3 679 67
	movq	-152(%rbp), %rax
	movq	(%rax), %rax
	.loc 3 679 91
	movq	8(%rax), %rax
	.loc 3 679 65
	negq	%rax
	.loc 3 679 13
	addq	%rax, %rdx
	.loc 3 679 9
	movq	-152(%rbp), %rax
	movq	%rdx, (%rax)
	.loc 3 683 2
	jmp	.L641
.L577:
	.loc 3 681 12
	movq	-144(%rbp), %rax
	movq	$16, (%rax)
.L641:
	.loc 3 683 2
	nop
.LBE1084:
.LBE1083:
.LBB1089:
	.loc 3 698 40
	movq	-240(%rbp), %rax
	.loc 3 698 66
	movq	(%rax), %rax
	.loc 3 698 78
	andl	$4, %eax
	.loc 3 698 26
	testq	%rax, %rax
	setne	%al
	.loc 3 698 24
	movzbl	%al, %eax
	.loc 3 698 2
	testq	%rax, %rax
	je	.L584
.LBB1090:
.LBB1091:
	.loc 3 699 22
	movq	8+_ZL10heapMaster(%rip), %rax
	.loc 3 699 2
	cmpq	%rax, -176(%rbp)
	jb	.L585
	.loc 3 699 48
	movq	16+_ZL10heapMaster(%rip), %rax
	.loc 3 699 7
	cmpq	%rax, -176(%rbp)
	ja	.L585
.LBB1092:
	.loc 3 699 70
	movl	$137, %edx
	leaq	.LC37(%rip), %rax
	movq	%rax, %rsi
	movl	$2, %edi
	call	write@PLT
	.loc 3 699 59
	movl	%eax, -248(%rbp)
	.loc 3 699 419
	call	abort@PLT
.L585:
.LBE1092:
.LBE1091:
	.loc 3 700 78
	movq	-240(%rbp), %rax
	.loc 3 700 102
	movq	(%rax), %rax
	.loc 3 700 114
	andq	$-8, %rax
	.loc 3 700 7
	movq	%rax, -224(%rbp)
	.loc 3 701 9
	jmp	.L586
.L584:
.LBE1090:
.LBE1089:
	.loc 3 704 77
	movq	-240(%rbp), %rax
	.loc 3 704 101
	movq	(%rax), %rax
	.loc 3 704 108
	andq	$-8, %rax
	.loc 3 704 11
	movq	%rax, -232(%rbp)
.L576:
.LBE1082:
.LBE1081:
	.loc 3 706 9
	movq	-232(%rbp), %rax
	.loc 3 706 21
	movq	32(%rax), %rax
	.loc 3 706 7
	movq	%rax, -224(%rbp)
	.loc 3 709 16
	movq	-240(%rbp), %rdx
	.loc 3 709 38
	movq	8+_ZL10heapMaster(%rip), %rax
	.loc 3 709 48
	cmpq	%rax, %rdx
	jb	.L587
	.loc 3 709 64
	movq	16+_ZL10heapMaster(%rip), %rdx
	.loc 3 709 74
	movq	-240(%rbp), %rax
	.loc 3 709 48
	cmpq	%rax, %rdx
	jnb	.L588
.L587:
	movl	$1, %eax
	jmp	.L589
.L588:
	movl	$0, %eax
.L589:
	.loc 3 709 14
	movzbl	%al, %eax
	movb	%al, -251(%rbp)
	andb	$1, -251(%rbp)
	movq	-184(%rbp), %rax
	movq	%rax, -120(%rbp)
	movq	-176(%rbp), %rax
	movq	%rax, -112(%rbp)
.LBB1093:
.LBB1094:
	.loc 3 650 24
	movzbl	-251(%rbp), %eax
	.loc 3 650 2
	testq	%rax, %rax
	je	.L642
	.loc 3 651 8
	movq	-112(%rbp), %rdx
	movq	-120(%rbp), %rax
	movq	%rax, %rsi
	leaq	.LC35(%rip), %rax
	movq	%rax, %rdi
	movl	$0, %eax
	call	_Z5abortPKcz@PLT
.L642:
	.loc 3 655 2
	nop
.LBE1094:
.LBE1093:
	.loc 3 712 32
	movq	-232(%rbp), %rax
	.loc 3 712 41
	testq	%rax, %rax
	sete	%al
	.loc 3 712 24
	movzbl	%al, %eax
	testq	%rax, %rax
	jne	.L591
	.loc 3 712 71
	movq	-232(%rbp), %rax
	.loc 3 712 69
	movq	24(%rax), %rax
	movq	%rax, -104(%rbp)
	.loc 3 712 97
	movq	-232(%rbp), %rdx
	.loc 3 712 108
	movq	-104(%rbp), %rax
	.loc 3 712 141
	cmpq	%rax, %rdx
	jb	.L592
	.loc 3 712 144
	movq	-104(%rbp), %rax
	leaq	3640(%rax), %rdx
	.loc 3 712 200
	movq	-232(%rbp), %rax
	.loc 3 712 141
	cmpq	%rax, %rdx
	ja	.L593
.L592:
	movl	$1, %eax
	jmp	.L594
.L593:
	movl	$0, %eax
.L594:
	.loc 3 712 24
	movzbl	%al, %eax
	testq	%rax, %rax
	je	.L595
.L591:
	movl	$1, %eax
	jmp	.L596
.L595:
	movl	$0, %eax
.L596:
	movzbl	%al, %eax
	testq	%rax, %rax
	setne	%al
	.loc 3 712 2
	testb	%al, %al
	je	.L643
	.loc 3 716 8
	movq	-176(%rbp), %rdx
	movq	-184(%rbp), %rax
	movq	%rax, %rsi
	leaq	.LC38(%rip), %rax
	movq	%rax, %rdi
	movl	$0, %eax
	call	_Z5abortPKcz@PLT
.L643:
	.loc 3 722 9
	nop
.L586:
.LBE1078:
.LBE1077:
	.loc 3 1227 26
	movq	-224(%rbp), %rax
	.loc 3 1227 49
	movq	-240(%rbp), %rcx
	.loc 3 1227 47
	movq	-264(%rbp), %rdx
	subq	%rcx, %rdx
	.loc 3 1227 9
	subq	%rdx, %rax
	movq	%rax, -200(%rbp)
	.loc 3 1228 41
	movq	-240(%rbp), %rax
	.loc 3 1228 9
	movq	8(%rax), %rax
	movq	%rax, -192(%rbp)
	.loc 3 1229 50
	movq	-240(%rbp), %rax
	movq	(%rax), %rax
	.loc 3 1229 62
	andl	$2, %eax
	.loc 3 1229 7
	testq	%rax, %rax
	setne	%al
	movb	%al, -253(%rbp)
	.loc 3 1230 26
	movq	-272(%rbp), %rax
	cmpq	-200(%rbp), %rax
	setbe	%al
	.loc 3 1230 24
	movzbl	%al, %eax
	.loc 3 1230 2
	testq	%rax, %rax
	je	.L598
	.loc 3 1230 73 discriminator 1
	movq	-272(%rbp), %rax
	addq	%rax, %rax
	.loc 3 1230 55 discriminator 1
	cmpq	%rax, -200(%rbp)
	ja	.L598
	.loc 3 1232 46
	movq	-240(%rbp), %rax
	movq	8(%rax), %rdx
	.loc 3 1232 13
	movq	-272(%rbp), %rax
	subq	%rdx, %rax
	movq	%rax, %rdi
	call	_ZL10incUnfreedm
	.loc 3 1234 26
	movq	-240(%rbp), %rax
	.loc 3 1234 31
	movq	-272(%rbp), %rdx
	movq	%rdx, 8(%rax)
	.loc 3 1235 24
	movzbl	-253(%rbp), %eax
	.loc 3 1235 2
	testq	%rax, %rax
	je	.L599
	.loc 3 1235 47 discriminator 1
	movq	-272(%rbp), %rax
	cmpq	-192(%rbp), %rax
	jbe	.L599
	.loc 3 1236 9
	movq	-272(%rbp), %rax
	subq	-192(%rbp), %rax
	movq	-264(%rbp), %rcx
	movq	-192(%rbp), %rdx
	addq	%rdx, %rcx
	movq	%rax, %rdx
	movl	$0, %esi
	movq	%rcx, %rdi
	call	memset@PLT
.L599:
	.loc 3 1241 9
	movq	-264(%rbp), %rax
	jmp	.L629
.L598:
	.loc 3 1247 26
	movq	-216(%rbp), %rax
	cmpq	$16, %rax
	setbe	%al
	.loc 3 1247 24
	movzbl	%al, %eax
	.loc 3 1247 2
	testq	%rax, %rax
	je	.L600
	.loc 3 1248 19
	movq	-272(%rbp), %rax
	movq	%rax, %rdi
	call	_ZL8doMallocm
	movq	%rax, -208(%rbp)
	jmp	.L601
.L600:
	.loc 3 1250 26
	movq	-216(%rbp), %rax
	movq	-272(%rbp), %rdx
	movq	%rdx, %rsi
	movq	%rax, %rdi
	call	_ZL15memalignNoStatsmm
	movq	%rax, -208(%rbp)
.L601:
	leaq	.LC45(%rip), %rax
	movq	%rax, -96(%rbp)
	movq	-208(%rbp), %rax
	movq	%rax, -88(%rbp)
.LBB1095:
.LBB1096:
	.loc 3 689 13
	movq	-88(%rbp), %rax
	subq	$16, %rax
	.loc 3 689 9
	movq	%rax, -240(%rbp)
	.loc 3 691 16
	movq	-240(%rbp), %rdx
	.loc 3 691 38
	movq	8+_ZL10heapMaster(%rip), %rax
	.loc 3 691 14
	cmpq	%rax, %rdx
	setb	%al
	movzbl	%al, %eax
	movb	%al, -250(%rbp)
	andb	$1, -250(%rbp)
	movq	-96(%rbp), %rax
	movq	%rax, -80(%rbp)
	movq	-88(%rbp), %rax
	movq	%rax, -72(%rbp)
.LBB1097:
.LBB1098:
	.loc 3 650 24
	movzbl	-250(%rbp), %eax
	.loc 3 650 2
	testq	%rax, %rax
	je	.L644
	.loc 3 651 8
	movq	-72(%rbp), %rdx
	movq	-80(%rbp), %rax
	movq	%rax, %rsi
	leaq	.LC35(%rip), %rax
	movq	%rax, %rdi
	movl	$0, %eax
	call	_Z5abortPKcz@PLT
.L644:
	.loc 3 655 2
	nop
.LBE1098:
.LBE1097:
.LBB1099:
	.loc 3 693 40
	movq	-240(%rbp), %rax
	.loc 3 693 66
	movq	(%rax), %rax
	.loc 3 693 76
	andl	$7, %eax
	.loc 3 693 26
	testq	%rax, %rax
	sete	%al
	.loc 3 693 24
	movzbl	%al, %eax
	.loc 3 693 2
	testq	%rax, %rax
	je	.L603
	.loc 3 694 13
	movq	-240(%rbp), %rax
	.loc 3 694 37
	movq	(%rax), %rax
	.loc 3 694 11
	movq	%rax, -232(%rbp)
	.loc 3 695 12
	movq	$16, -216(%rbp)
	jmp	.L604
.L603:
	leaq	-240(%rbp), %rax
	movq	%rax, -64(%rbp)
	leaq	-216(%rbp), %rax
	movq	%rax, -56(%rbp)
.LBB1100:
.LBB1101:
.LBB1102:
	.loc 3 676 40
	movq	-64(%rbp), %rax
	movq	(%rax), %rax
	.loc 3 676 66
	movq	(%rax), %rax
	.loc 3 676 78
	andl	$1, %eax
	.loc 3 676 26
	testq	%rax, %rax
	setne	%al
	.loc 3 676 24
	movzbl	%al, %eax
	.loc 3 676 2
	testq	%rax, %rax
	je	.L605
	.loc 3 677 20
	movq	-64(%rbp), %rax
	movq	(%rax), %rax
	.loc 3 677 46
	movq	(%rax), %rax
	.loc 3 677 58
	andq	$-2, %rax
	movq	%rax, %rdx
	.loc 3 677 12
	movq	-56(%rbp), %rax
	movq	%rdx, (%rax)
	.loc 3 678 13
	movq	-56(%rbp), %rax
	movq	(%rax), %rax
	movq	%rax, -48(%rbp)
.LBB1103:
.LBB1104:
	.loc 3 642 42
	cmpq	$15, -48(%rbp)
	setbe	%al
	.loc 3 642 24
	movzbl	%al, %eax
	testq	%rax, %rax
	jne	.L606
	movq	-48(%rbp), %rax
	movq	%rax, -40(%rbp)
.LBB1105:
.LBB1106:
	.loc 4 40 27
	movq	-40(%rbp), %rax
	subq	$1, %rax
	.loc 4 40 17
	andq	-40(%rbp), %rax
	.loc 4 40 38
	testq	%rax, %rax
	sete	%al
.LBE1106:
.LBE1105:
	.loc 3 642 62
	xorl	$1, %eax
	.loc 3 642 24
	movzbl	%al, %eax
	testq	%rax, %rax
	je	.L608
.L606:
	movl	$1, %eax
	jmp	.L609
.L608:
	movl	$0, %eax
.L609:
	movzbl	%al, %eax
	testq	%rax, %rax
	setne	%al
	.loc 3 642 2
	testb	%al, %al
	je	.L645
	.loc 3 643 8
	movq	-48(%rbp), %rax
	movl	$16, %edx
	movq	%rax, %rsi
	leaq	.LC36(%rip), %rax
	movq	%rax, %rdi
	movl	$0, %eax
	call	_Z5abortPKcz@PLT
.L645:
	.loc 3 645 2
	nop
.LBE1104:
.LBE1103:
	.loc 3 679 58
	movq	-64(%rbp), %rax
	movq	(%rax), %rdx
	.loc 3 679 67
	movq	-64(%rbp), %rax
	movq	(%rax), %rax
	.loc 3 679 91
	movq	8(%rax), %rax
	.loc 3 679 65
	negq	%rax
	.loc 3 679 13
	addq	%rax, %rdx
	.loc 3 679 9
	movq	-64(%rbp), %rax
	movq	%rdx, (%rax)
	.loc 3 683 2
	jmp	.L646
.L605:
	.loc 3 681 12
	movq	-56(%rbp), %rax
	movq	$16, (%rax)
.L646:
	.loc 3 683 2
	nop
.LBE1102:
.LBE1101:
.LBB1107:
	.loc 3 698 40
	movq	-240(%rbp), %rax
	.loc 3 698 66
	movq	(%rax), %rax
	.loc 3 698 78
	andl	$4, %eax
	.loc 3 698 26
	testq	%rax, %rax
	setne	%al
	.loc 3 698 24
	movzbl	%al, %eax
	.loc 3 698 2
	testq	%rax, %rax
	je	.L612
.LBB1108:
.LBB1109:
	.loc 3 699 22
	movq	8+_ZL10heapMaster(%rip), %rax
	.loc 3 699 2
	cmpq	%rax, -88(%rbp)
	jb	.L613
	.loc 3 699 48
	movq	16+_ZL10heapMaster(%rip), %rax
	.loc 3 699 7
	cmpq	%rax, -88(%rbp)
	ja	.L613
.LBB1110:
	.loc 3 699 70
	movl	$137, %edx
	leaq	.LC37(%rip), %rax
	movq	%rax, %rsi
	movl	$2, %edi
	call	write@PLT
	.loc 3 699 59
	movl	%eax, -244(%rbp)
	.loc 3 699 419
	call	abort@PLT
.L613:
.LBE1110:
.LBE1109:
	.loc 3 700 78
	movq	-240(%rbp), %rax
	.loc 3 700 102
	movq	(%rax), %rax
	.loc 3 700 114
	andq	$-8, %rax
	.loc 3 700 7
	movq	%rax, -224(%rbp)
	.loc 3 701 9
	jmp	.L614
.L612:
.LBE1108:
.LBE1107:
	.loc 3 704 77
	movq	-240(%rbp), %rax
	.loc 3 704 101
	movq	(%rax), %rax
	.loc 3 704 108
	andq	$-8, %rax
	.loc 3 704 11
	movq	%rax, -232(%rbp)
.L604:
.LBE1100:
.LBE1099:
	.loc 3 706 9
	movq	-232(%rbp), %rax
	.loc 3 706 21
	movq	32(%rax), %rax
	.loc 3 706 7
	movq	%rax, -224(%rbp)
	.loc 3 709 16
	movq	-240(%rbp), %rdx
	.loc 3 709 38
	movq	8+_ZL10heapMaster(%rip), %rax
	.loc 3 709 48
	cmpq	%rax, %rdx
	jb	.L615
	.loc 3 709 64
	movq	16+_ZL10heapMaster(%rip), %rdx
	.loc 3 709 74
	movq	-240(%rbp), %rax
	.loc 3 709 48
	cmpq	%rax, %rdx
	jnb	.L616
.L615:
	movl	$1, %eax
	jmp	.L617
.L616:
	movl	$0, %eax
.L617:
	.loc 3 709 14
	movzbl	%al, %eax
	movb	%al, -249(%rbp)
	andb	$1, -249(%rbp)
	movq	-96(%rbp), %rax
	movq	%rax, -32(%rbp)
	movq	-88(%rbp), %rax
	movq	%rax, -24(%rbp)
.LBB1111:
.LBB1112:
	.loc 3 650 24
	movzbl	-249(%rbp), %eax
	.loc 3 650 2
	testq	%rax, %rax
	je	.L647
	.loc 3 651 8
	movq	-24(%rbp), %rdx
	movq	-32(%rbp), %rax
	movq	%rax, %rsi
	leaq	.LC35(%rip), %rax
	movq	%rax, %rdi
	movl	$0, %eax
	call	_Z5abortPKcz@PLT
.L647:
	.loc 3 655 2
	nop
.LBE1112:
.LBE1111:
	.loc 3 712 32
	movq	-232(%rbp), %rax
	.loc 3 712 41
	testq	%rax, %rax
	sete	%al
	.loc 3 712 24
	movzbl	%al, %eax
	testq	%rax, %rax
	jne	.L619
	.loc 3 712 71
	movq	-232(%rbp), %rax
	.loc 3 712 69
	movq	24(%rax), %rax
	movq	%rax, -16(%rbp)
	.loc 3 712 97
	movq	-232(%rbp), %rdx
	.loc 3 712 108
	movq	-16(%rbp), %rax
	.loc 3 712 141
	cmpq	%rax, %rdx
	jb	.L620
	.loc 3 712 144
	movq	-16(%rbp), %rax
	leaq	3640(%rax), %rdx
	.loc 3 712 200
	movq	-232(%rbp), %rax
	.loc 3 712 141
	cmpq	%rax, %rdx
	ja	.L621
.L620:
	movl	$1, %eax
	jmp	.L622
.L621:
	movl	$0, %eax
.L622:
	.loc 3 712 24
	movzbl	%al, %eax
	testq	%rax, %rax
	je	.L623
.L619:
	movl	$1, %eax
	jmp	.L624
.L623:
	movl	$0, %eax
.L624:
	movzbl	%al, %eax
	testq	%rax, %rax
	setne	%al
	.loc 3 712 2
	testb	%al, %al
	je	.L648
	.loc 3 716 8
	movq	-88(%rbp), %rdx
	movq	-96(%rbp), %rax
	movq	%rax, %rsi
	leaq	.LC38(%rip), %rax
	movq	%rax, %rdi
	movl	$0, %eax
	call	_Z5abortPKcz@PLT
.L648:
	.loc 3 722 9
	nop
.L614:
.LBE1096:
.LBE1095:
	.loc 3 1255 9
	movq	-192(%rbp), %rax
	cmpq	-272(%rbp), %rax
	jnb	.L626
	.loc 3 1255 9 is_stmt 0 discriminator 1
	movq	-192(%rbp), %rax
	jmp	.L627
.L626:
	.loc 3 1255 9 discriminator 2
	movq	-272(%rbp), %rax
.L627:
	.loc 3 1255 9 discriminator 4
	movq	-264(%rbp), %rsi
	movq	-208(%rbp), %rcx
	movq	%rax, %rdx
	movq	%rcx, %rdi
	call	memcpy@PLT
	.loc 3 1256 9 is_stmt 1 discriminator 4
	movq	-264(%rbp), %rax
	movq	%rax, %rdi
	call	_ZL6doFreePv
	.loc 3 1258 24 discriminator 4
	movzbl	-253(%rbp), %eax
	.loc 3 1258 2 discriminator 4
	testq	%rax, %rax
	je	.L628
	.loc 3 1259 42
	movq	-240(%rbp), %rax
	movq	(%rax), %rdx
	movq	-240(%rbp), %rax
	orq	$2, %rdx
	movq	%rdx, (%rax)
	.loc 3 1260 2
	movq	-272(%rbp), %rax
	cmpq	-192(%rbp), %rax
	jbe	.L628
	.loc 3 1261 9
	movq	-272(%rbp), %rax
	subq	-192(%rbp), %rax
	movq	-208(%rbp), %rcx
	movq	-192(%rbp), %rdx
	addq	%rdx, %rcx
	movq	%rax, %rdx
	movl	$0, %esi
	movq	%rcx, %rdi
	call	memset@PLT
.L628:
	.loc 3 1264 9
	movq	-208(%rbp), %rax
.L629:
	.loc 3 1265 2 discriminator 1
	movq	-8(%rbp), %rdx
	subq	%fs:40, %rdx
	je	.L630
	.loc 3 1265 2 is_stmt 0
	call	__stack_chk_fail@PLT
.L630:
	leave
	.cfi_def_cfa 7, 8
	ret
	.cfi_endproc
.LFE2874:
	.section	.gcc_except_table
.LLSDA2874:
	.byte	0xff
	.byte	0xff
	.byte	0x1
	.uleb128 .LLSDACSE2874-.LLSDACSB2874
.LLSDACSB2874:
.LLSDACSE2874:
	.text
	.size	realloc, .-realloc
	.globl	reallocarray
	.type	reallocarray, @function
reallocarray:
.LFB2875:
	.loc 3 1269 2 is_stmt 1
	.cfi_startproc
	endbr64
	pushq	%rbp
	.cfi_def_cfa_offset 16
	.cfi_offset 6, -16
	movq	%rsp, %rbp
	.cfi_def_cfa_register 6
	subq	$32, %rsp
	movq	%rdi, -8(%rbp)
	movq	%rsi, -16(%rbp)
	movq	%rdx, -24(%rbp)
	.loc 3 1270 17
	movq	-16(%rbp), %rax
	imulq	-24(%rbp), %rax
	movq	%rax, %rdx
	movq	-8(%rbp), %rax
	movq	%rdx, %rsi
	movq	%rax, %rdi
	call	realloc
	.loc 3 1271 2
	leave
	.cfi_def_cfa 7, 8
	ret
	.cfi_endproc
.LFE2875:
	.size	reallocarray, .-reallocarray
	.globl	memalign
	.type	memalign, @function
memalign:
.LFB2876:
	.loc 3 1275 2
	.cfi_startproc
	.cfi_personality 0x9b,DW.ref.__gxx_personality_v0
	.cfi_lsda 0x1b,.LLSDA2876
	endbr64
	pushq	%rbp
	.cfi_def_cfa_offset 16
	.cfi_offset 6, -16
	movq	%rsp, %rbp
	.cfi_def_cfa_register 6
	subq	$16, %rsp
	movq	%rdi, -8(%rbp)
	movq	%rsi, -16(%rbp)
	.loc 3 1276 25
	movq	-16(%rbp), %rdx
	movq	-8(%rbp), %rax
	movq	%rdx, %rsi
	movq	%rax, %rdi
	call	_ZL15memalignNoStatsmm
	.loc 3 1277 2
	leave
	.cfi_def_cfa 7, 8
	ret
	.cfi_endproc
.LFE2876:
	.section	.gcc_except_table
.LLSDA2876:
	.byte	0xff
	.byte	0xff
	.byte	0x1
	.uleb128 .LLSDACSE2876-.LLSDACSB2876
.LLSDACSB2876:
.LLSDACSE2876:
	.text
	.size	memalign, .-memalign
	.globl	amemalign
	.type	amemalign, @function
amemalign:
.LFB2877:
	.loc 3 1281 2
	.cfi_startproc
	.cfi_personality 0x9b,DW.ref.__gxx_personality_v0
	.cfi_lsda 0x1b,.LLSDA2877
	endbr64
	pushq	%rbp
	.cfi_def_cfa_offset 16
	.cfi_offset 6, -16
	movq	%rsp, %rbp
	.cfi_def_cfa_register 6
	subq	$32, %rsp
	movq	%rdi, -8(%rbp)
	movq	%rsi, -16(%rbp)
	movq	%rdx, -24(%rbp)
	.loc 3 1282 25
	movq	-16(%rbp), %rax
	imulq	-24(%rbp), %rax
	movq	%rax, %rdx
	movq	-8(%rbp), %rax
	movq	%rdx, %rsi
	movq	%rax, %rdi
	call	_ZL15memalignNoStatsmm
	.loc 3 1283 2
	leave
	.cfi_def_cfa 7, 8
	ret
	.cfi_endproc
.LFE2877:
	.section	.gcc_except_table
.LLSDA2877:
	.byte	0xff
	.byte	0xff
	.byte	0x1
	.uleb128 .LLSDACSE2877-.LLSDACSB2877
.LLSDACSB2877:
.LLSDACSE2877:
	.text
	.size	amemalign, .-amemalign
	.section	.rodata
.LC46:
	.string	"cmemalign"
	.text
	.globl	cmemalign
	.type	cmemalign, @function
cmemalign:
.LFB2878:
	.loc 3 1287 2
	.cfi_startproc
	.cfi_personality 0x9b,DW.ref.__gxx_personality_v0
	.cfi_lsda 0x1b,.LLSDA2878
	endbr64
	pushq	%rbp
	.cfi_def_cfa_offset 16
	.cfi_offset 6, -16
	movq	%rsp, %rbp
	.cfi_def_cfa_register 6
	subq	$176, %rsp
	movq	%rdi, -152(%rbp)
	movq	%rsi, -160(%rbp)
	movq	%rdx, -168(%rbp)
	.loc 3 1287 2
	movq	%fs:40, %rax
	movq	%rax, -8(%rbp)
	xorl	%eax, %eax
	.loc 3 1288 9
	movq	-160(%rbp), %rax
	imulq	-168(%rbp), %rax
	movq	%rax, -112(%rbp)
	.loc 3 1289 43
	movq	-152(%rbp), %rax
	movq	-112(%rbp), %rdx
	movq	%rdx, %rsi
	movq	%rax, %rdi
	call	_ZL15memalignNoStatsmm
	movq	%rax, -104(%rbp)
	.loc 3 1291 26
	cmpq	$0, -104(%rbp)
	sete	%al
	.loc 3 1291 24
	movzbl	%al, %eax
	.loc 3 1291 2
	testq	%rax, %rax
	je	.L656
	.loc 3 1291 2 discriminator 1
	movl	$0, %eax
	jmp	.L682
.L656:
	leaq	.LC46(%rip), %rax
	movq	%rax, -96(%rbp)
	movq	-104(%rbp), %rax
	movq	%rax, -88(%rbp)
.LBB1113:
.LBB1114:
	.loc 3 689 13
	movq	-88(%rbp), %rax
	subq	$16, %rax
	.loc 3 689 9
	movq	%rax, -136(%rbp)
	.loc 3 691 16
	movq	-136(%rbp), %rdx
	.loc 3 691 38
	movq	8+_ZL10heapMaster(%rip), %rax
	.loc 3 691 14
	cmpq	%rax, %rdx
	setb	%al
	movzbl	%al, %eax
	movb	%al, -142(%rbp)
	andb	$1, -142(%rbp)
	movq	-96(%rbp), %rax
	movq	%rax, -80(%rbp)
	movq	-88(%rbp), %rax
	movq	%rax, -72(%rbp)
.LBB1115:
.LBB1116:
	.loc 3 650 24
	movzbl	-142(%rbp), %eax
	.loc 3 650 2
	testq	%rax, %rax
	je	.L688
	.loc 3 651 8
	movq	-72(%rbp), %rdx
	movq	-80(%rbp), %rax
	movq	%rax, %rsi
	leaq	.LC35(%rip), %rax
	movq	%rax, %rdi
	movl	$0, %eax
	call	_Z5abortPKcz@PLT
.L688:
	.loc 3 655 2
	nop
.LBE1116:
.LBE1115:
.LBB1117:
	.loc 3 693 40
	movq	-136(%rbp), %rax
	.loc 3 693 66
	movq	(%rax), %rax
	.loc 3 693 76
	andl	$7, %eax
	.loc 3 693 26
	testq	%rax, %rax
	sete	%al
	.loc 3 693 24
	movzbl	%al, %eax
	.loc 3 693 2
	testq	%rax, %rax
	je	.L659
	.loc 3 694 13
	movq	-136(%rbp), %rax
	.loc 3 694 37
	movq	(%rax), %rax
	.loc 3 694 11
	movq	%rax, -128(%rbp)
	.loc 3 695 12
	movq	$16, -152(%rbp)
	jmp	.L660
.L659:
	leaq	-136(%rbp), %rax
	movq	%rax, -64(%rbp)
	leaq	-152(%rbp), %rax
	movq	%rax, -56(%rbp)
.LBB1118:
.LBB1119:
.LBB1120:
	.loc 3 676 40
	movq	-64(%rbp), %rax
	movq	(%rax), %rax
	.loc 3 676 66
	movq	(%rax), %rax
	.loc 3 676 78
	andl	$1, %eax
	.loc 3 676 26
	testq	%rax, %rax
	setne	%al
	.loc 3 676 24
	movzbl	%al, %eax
	.loc 3 676 2
	testq	%rax, %rax
	je	.L661
	.loc 3 677 20
	movq	-64(%rbp), %rax
	movq	(%rax), %rax
	.loc 3 677 46
	movq	(%rax), %rax
	.loc 3 677 58
	andq	$-2, %rax
	movq	%rax, %rdx
	.loc 3 677 12
	movq	-56(%rbp), %rax
	movq	%rdx, (%rax)
	.loc 3 678 13
	movq	-56(%rbp), %rax
	movq	(%rax), %rax
	movq	%rax, -48(%rbp)
.LBB1121:
.LBB1122:
	.loc 3 642 42
	cmpq	$15, -48(%rbp)
	setbe	%al
	.loc 3 642 24
	movzbl	%al, %eax
	testq	%rax, %rax
	jne	.L662
	movq	-48(%rbp), %rax
	movq	%rax, -40(%rbp)
.LBB1123:
.LBB1124:
	.loc 4 40 27
	movq	-40(%rbp), %rax
	subq	$1, %rax
	.loc 4 40 17
	andq	-40(%rbp), %rax
	.loc 4 40 38
	testq	%rax, %rax
	sete	%al
.LBE1124:
.LBE1123:
	.loc 3 642 62
	xorl	$1, %eax
	.loc 3 642 24
	movzbl	%al, %eax
	testq	%rax, %rax
	je	.L664
.L662:
	movl	$1, %eax
	jmp	.L665
.L664:
	movl	$0, %eax
.L665:
	movzbl	%al, %eax
	testq	%rax, %rax
	setne	%al
	.loc 3 642 2
	testb	%al, %al
	je	.L689
	.loc 3 643 8
	movq	-48(%rbp), %rax
	movl	$16, %edx
	movq	%rax, %rsi
	leaq	.LC36(%rip), %rax
	movq	%rax, %rdi
	movl	$0, %eax
	call	_Z5abortPKcz@PLT
.L689:
	.loc 3 645 2
	nop
.LBE1122:
.LBE1121:
	.loc 3 679 58
	movq	-64(%rbp), %rax
	movq	(%rax), %rdx
	.loc 3 679 67
	movq	-64(%rbp), %rax
	movq	(%rax), %rax
	.loc 3 679 91
	movq	8(%rax), %rax
	.loc 3 679 65
	negq	%rax
	.loc 3 679 13
	addq	%rax, %rdx
	.loc 3 679 9
	movq	-64(%rbp), %rax
	movq	%rdx, (%rax)
	.loc 3 683 2
	jmp	.L690
.L661:
	.loc 3 681 12
	movq	-56(%rbp), %rax
	movq	$16, (%rax)
.L690:
	.loc 3 683 2
	nop
.LBE1120:
.LBE1119:
.LBB1125:
	.loc 3 698 40
	movq	-136(%rbp), %rax
	.loc 3 698 66
	movq	(%rax), %rax
	.loc 3 698 78
	andl	$4, %eax
	.loc 3 698 26
	testq	%rax, %rax
	setne	%al
	.loc 3 698 24
	movzbl	%al, %eax
	.loc 3 698 2
	testq	%rax, %rax
	je	.L668
.LBB1126:
.LBB1127:
	.loc 3 699 22
	movq	8+_ZL10heapMaster(%rip), %rax
	.loc 3 699 2
	cmpq	%rax, -88(%rbp)
	jb	.L669
	.loc 3 699 48
	movq	16+_ZL10heapMaster(%rip), %rax
	.loc 3 699 7
	cmpq	%rax, -88(%rbp)
	ja	.L669
.LBB1128:
	.loc 3 699 70
	movl	$137, %edx
	leaq	.LC37(%rip), %rax
	movq	%rax, %rsi
	movl	$2, %edi
	call	write@PLT
	.loc 3 699 59
	movl	%eax, -140(%rbp)
	.loc 3 699 419
	call	abort@PLT
.L669:
.LBE1128:
.LBE1127:
	.loc 3 700 78
	movq	-136(%rbp), %rax
	.loc 3 700 102
	movq	(%rax), %rax
	.loc 3 700 114
	andq	$-8, %rax
	.loc 3 700 7
	movq	%rax, -120(%rbp)
	.loc 3 701 9
	jmp	.L670
.L668:
.LBE1126:
.LBE1125:
	.loc 3 704 77
	movq	-136(%rbp), %rax
	.loc 3 704 101
	movq	(%rax), %rax
	.loc 3 704 108
	andq	$-8, %rax
	.loc 3 704 11
	movq	%rax, -128(%rbp)
.L660:
.LBE1118:
.LBE1117:
	.loc 3 706 9
	movq	-128(%rbp), %rax
	.loc 3 706 21
	movq	32(%rax), %rax
	.loc 3 706 7
	movq	%rax, -120(%rbp)
	.loc 3 709 16
	movq	-136(%rbp), %rdx
	.loc 3 709 38
	movq	8+_ZL10heapMaster(%rip), %rax
	.loc 3 709 48
	cmpq	%rax, %rdx
	jb	.L671
	.loc 3 709 64
	movq	16+_ZL10heapMaster(%rip), %rdx
	.loc 3 709 74
	movq	-136(%rbp), %rax
	.loc 3 709 48
	cmpq	%rax, %rdx
	jnb	.L672
.L671:
	movl	$1, %eax
	jmp	.L673
.L672:
	movl	$0, %eax
.L673:
	.loc 3 709 14
	movzbl	%al, %eax
	movb	%al, -141(%rbp)
	andb	$1, -141(%rbp)
	movq	-96(%rbp), %rax
	movq	%rax, -32(%rbp)
	movq	-88(%rbp), %rax
	movq	%rax, -24(%rbp)
.LBB1129:
.LBB1130:
	.loc 3 650 24
	movzbl	-141(%rbp), %eax
	.loc 3 650 2
	testq	%rax, %rax
	je	.L691
	.loc 3 651 8
	movq	-24(%rbp), %rdx
	movq	-32(%rbp), %rax
	movq	%rax, %rsi
	leaq	.LC35(%rip), %rax
	movq	%rax, %rdi
	movl	$0, %eax
	call	_Z5abortPKcz@PLT
.L691:
	.loc 3 655 2
	nop
.LBE1130:
.LBE1129:
	.loc 3 712 32
	movq	-128(%rbp), %rax
	.loc 3 712 41
	testq	%rax, %rax
	sete	%al
	.loc 3 712 24
	movzbl	%al, %eax
	testq	%rax, %rax
	jne	.L675
	.loc 3 712 71
	movq	-128(%rbp), %rax
	.loc 3 712 69
	movq	24(%rax), %rax
	movq	%rax, -16(%rbp)
	.loc 3 712 97
	movq	-128(%rbp), %rdx
	.loc 3 712 108
	movq	-16(%rbp), %rax
	.loc 3 712 141
	cmpq	%rax, %rdx
	jb	.L676
	.loc 3 712 144
	movq	-16(%rbp), %rax
	leaq	3640(%rax), %rdx
	.loc 3 712 200
	movq	-128(%rbp), %rax
	.loc 3 712 141
	cmpq	%rax, %rdx
	ja	.L677
.L676:
	movl	$1, %eax
	jmp	.L678
.L677:
	movl	$0, %eax
.L678:
	.loc 3 712 24
	movzbl	%al, %eax
	testq	%rax, %rax
	je	.L679
.L675:
	movl	$1, %eax
	jmp	.L680
.L679:
	movl	$0, %eax
.L680:
	movzbl	%al, %eax
	testq	%rax, %rax
	setne	%al
	.loc 3 712 2
	testb	%al, %al
	je	.L692
	.loc 3 716 8
	movq	-88(%rbp), %rdx
	movq	-96(%rbp), %rax
	movq	%rax, %rsi
	leaq	.LC38(%rip), %rax
	movq	%rax, %rdi
	movl	$0, %eax
	call	_Z5abortPKcz@PLT
.L692:
	.loc 3 722 9
	nop
.L670:
.LBE1114:
.LBE1113:
	.loc 3 1308 9
	movq	-112(%rbp), %rdx
	movq	-104(%rbp), %rax
	movl	$0, %esi
	movq	%rax, %rdi
	call	memset@PLT
	.loc 3 1310 42
	movq	-136(%rbp), %rax
	movq	(%rax), %rdx
	movq	-136(%rbp), %rax
	orq	$2, %rdx
	movq	%rdx, (%rax)
	.loc 3 1311 9
	movq	-104(%rbp), %rax
.L682:
	.loc 3 1312 2 discriminator 1
	movq	-8(%rbp), %rdx
	subq	%fs:40, %rdx
	je	.L683
	.loc 3 1312 2 is_stmt 0
	call	__stack_chk_fail@PLT
.L683:
	leave
	.cfi_def_cfa 7, 8
	ret
	.cfi_endproc
.LFE2878:
	.section	.gcc_except_table
.LLSDA2878:
	.byte	0xff
	.byte	0xff
	.byte	0x1
	.uleb128 .LLSDACSE2878-.LLSDACSB2878
.LLSDACSB2878:
.LLSDACSE2878:
	.text
	.size	cmemalign, .-cmemalign
	.globl	aligned_alloc
	.type	aligned_alloc, @function
aligned_alloc:
.LFB2879:
	.loc 3 1317 58 is_stmt 1
	.cfi_startproc
	endbr64
	pushq	%rbp
	.cfi_def_cfa_offset 16
	.cfi_offset 6, -16
	movq	%rsp, %rbp
	.cfi_def_cfa_register 6
	subq	$16, %rsp
	movq	%rdi, -8(%rbp)
	movq	%rsi, -16(%rbp)
	.loc 3 1318 18
	movq	-16(%rbp), %rdx
	movq	-8(%rbp), %rax
	movq	%rdx, %rsi
	movq	%rax, %rdi
	call	memalign
	.loc 3 1319 2
	leave
	.cfi_def_cfa 7, 8
	ret
	.cfi_endproc
.LFE2879:
	.size	aligned_alloc, .-aligned_alloc
	.globl	posix_memalign
	.type	posix_memalign, @function
posix_memalign:
.LFB2880:
	.loc 3 1326 74
	.cfi_startproc
	endbr64
	pushq	%rbp
	.cfi_def_cfa_offset 16
	.cfi_offset 6, -16
	movq	%rsp, %rbp
	.cfi_def_cfa_register 6
	subq	$48, %rsp
	movq	%rdi, -24(%rbp)
	movq	%rsi, -32(%rbp)
	movq	%rdx, -40(%rbp)
	.loc 3 1327 42
	cmpq	$15, -32(%rbp)
	setbe	%al
	.loc 3 1327 24
	movzbl	%al, %eax
	testq	%rax, %rax
	jne	.L696
	movq	-32(%rbp), %rax
	movq	%rax, -8(%rbp)
.LBB1131:
.LBB1132:
	.loc 4 40 27 discriminator 2
	movq	-8(%rbp), %rax
	subq	$1, %rax
	.loc 4 40 17 discriminator 2
	andq	-8(%rbp), %rax
	.loc 4 40 38 discriminator 2
	testq	%rax, %rax
	sete	%al
.LBE1132:
.LBE1131:
	.loc 3 1327 62 discriminator 2
	xorl	$1, %eax
	.loc 3 1327 24 discriminator 2
	movzbl	%al, %eax
	testq	%rax, %rax
	je	.L698
.L696:
	.loc 3 1327 24 is_stmt 0 discriminator 3
	movl	$1, %eax
	jmp	.L699
.L698:
	.loc 3 1327 24 discriminator 4
	movl	$0, %eax
.L699:
	.loc 3 1327 24 discriminator 6
	movzbl	%al, %eax
	testq	%rax, %rax
	setne	%al
	.loc 3 1327 2 is_stmt 1 discriminator 6
	testb	%al, %al
	je	.L700
	.loc 3 1327 2 discriminator 7
	movl	$22, %eax
	jmp	.L701
.L700:
	.loc 3 1328 22
	movq	-40(%rbp), %rdx
	movq	-32(%rbp), %rax
	movq	%rdx, %rsi
	movq	%rax, %rdi
	call	memalign
	movq	%rax, %rdx
	.loc 3 1328 11
	movq	-24(%rbp), %rax
	movq	%rdx, (%rax)
	.loc 3 1329 9
	movl	$0, %eax
.L701:
	.loc 3 1330 2
	leave
	.cfi_def_cfa 7, 8
	ret
	.cfi_endproc
.LFE2880:
	.size	posix_memalign, .-posix_memalign
	.globl	valloc
	.type	valloc, @function
valloc:
.LFB2881:
	.loc 3 1335 2
	.cfi_startproc
	endbr64
	pushq	%rbp
	.cfi_def_cfa_offset 16
	.cfi_offset 6, -16
	movq	%rsp, %rbp
	.cfi_def_cfa_register 6
	subq	$16, %rsp
	movq	%rdi, -8(%rbp)
	.loc 3 1336 18
	movq	32+_ZL10heapMaster(%rip), %rax
	movq	-8(%rbp), %rdx
	movq	%rdx, %rsi
	movq	%rax, %rdi
	call	memalign
	.loc 3 1337 2
	leave
	.cfi_def_cfa 7, 8
	ret
	.cfi_endproc
.LFE2881:
	.size	valloc, .-valloc
	.globl	pvalloc
	.type	pvalloc, @function
pvalloc:
.LFB2882:
	.loc 3 1341 2
	.cfi_startproc
	.cfi_personality 0x9b,DW.ref.__gxx_personality_v0
	.cfi_lsda 0x1b,.LLSDA2882
	endbr64
	pushq	%rbp
	.cfi_def_cfa_offset 16
	.cfi_offset 6, -16
	movq	%rsp, %rbp
	.cfi_def_cfa_register 6
	subq	$80, %rsp
	movq	%rdi, -72(%rbp)
	.loc 3 1342 18
	movq	32+_ZL10heapMaster(%rip), %rax
	movq	-72(%rbp), %rdx
	movq	%rdx, -48(%rbp)
	movq	%rax, -40(%rbp)
	movq	-40(%rbp), %rax
	movq	%rax, -32(%rbp)
.LBB1133:
.LBB1134:
.LBB1135:
.LBB1136:
.LBB1137:
	.loc 4 40 27
	movq	-32(%rbp), %rax
	subq	$1, %rax
	.loc 4 40 17
	andq	-32(%rbp), %rax
	.loc 4 40 38
	testq	%rax, %rax
	sete	%al
.LBE1137:
.LBE1136:
	.loc 4 56 7
	xorl	$1, %eax
	.loc 4 56 2
	testb	%al, %al
	je	.L706
.LBB1138:
	.loc 4 56 95
	movl	$50, %edx
	leaq	.LC1(%rip), %rax
	movq	%rax, %rsi
	movl	$2, %edi
	call	write@PLT
	.loc 4 56 84
	movl	%eax, -56(%rbp)
	.loc 4 56 173
	call	abort@PLT
.L706:
.LBE1138:
.LBE1135:
	.loc 4 58 18
	movq	-48(%rbp), %rax
	negq	%rax
	movq	%rax, -24(%rbp)
	movq	-40(%rbp), %rax
	movq	%rax, -16(%rbp)
	movq	-16(%rbp), %rax
	movq	%rax, -8(%rbp)
.LBB1139:
.LBB1140:
.LBB1141:
.LBB1142:
.LBB1143:
	.loc 4 40 27
	movq	-8(%rbp), %rax
	subq	$1, %rax
	.loc 4 40 17
	andq	-8(%rbp), %rax
	.loc 4 40 38
	testq	%rax, %rax
	sete	%al
.LBE1143:
.LBE1142:
	.loc 4 47 7
	xorl	$1, %eax
	.loc 4 47 2
	testb	%al, %al
	je	.L708
.LBB1144:
	.loc 4 47 95
	movl	$50, %edx
	leaq	.LC2(%rip), %rax
	movq	%rax, %rsi
	movl	$2, %edi
	call	write@PLT
	.loc 4 47 84
	movl	%eax, -52(%rbp)
	.loc 4 47 173
	call	abort@PLT
.L708:
.LBE1144:
.LBE1141:
	.loc 4 49 17
	movq	-16(%rbp), %rax
	negq	%rax
	.loc 4 49 19
	andq	-24(%rbp), %rax
.LBE1140:
.LBE1139:
	.loc 4 58 36
	negq	%rax
	movq	%rax, %rdx
.LBE1134:
.LBE1133:
	.loc 3 1342 18
	movq	32+_ZL10heapMaster(%rip), %rax
	movq	%rdx, %rsi
	movq	%rax, %rdi
	call	memalign
	.loc 3 1343 2
	leave
	.cfi_def_cfa 7, 8
	ret
	.cfi_endproc
.LFE2882:
	.section	.gcc_except_table
.LLSDA2882:
	.byte	0xff
	.byte	0xff
	.byte	0x1
	.uleb128 .LLSDACSE2882-.LLSDACSB2882
.LLSDACSB2882:
.LLSDACSE2882:
	.text
	.size	pvalloc, .-pvalloc
	.section	.rodata
	.align 8
.LC47:
	.string	"/u0/usystem/software/u++-7.0.0/src/kernel/uHeapLmmm.cc:1350: Assertion \"heapManager\" failed.\n"
	.text
	.globl	free
	.type	free, @function
free:
.LFB2883:
	.loc 3 1349 2
	.cfi_startproc
	.cfi_personality 0x9b,DW.ref.__gxx_personality_v0
	.cfi_lsda 0x1b,.LLSDA2883
	endbr64
	pushq	%rbp
	.cfi_def_cfa_offset 16
	.cfi_offset 6, -16
	movq	%rsp, %rbp
	.cfi_def_cfa_register 6
	subq	$32, %rsp
	movq	%rdi, -24(%rbp)
.LBB1145:
	.loc 3 1350 7
	movq	_ZL11heapManager(%rip), %rax
	.loc 3 1350 2
	testq	%rax, %rax
	jne	.L713
.LBB1146:
	.loc 3 1350 70 discriminator 1
	movl	$93, %edx
	leaq	.LC47(%rip), %rax
	movq	%rax, %rsi
	movl	$2, %edi
	call	write@PLT
	.loc 3 1350 59 discriminator 1
	movl	%eax, -4(%rbp)
	.loc 3 1350 331 discriminator 1
	call	abort@PLT
.L713:
.LBE1146:
.LBE1145:
	.loc 3 1352 26
	cmpq	$0, -24(%rbp)
	sete	%al
	.loc 3 1352 24
	movzbl	%al, %eax
	.loc 3 1352 2
	testq	%rax, %rax
	jne	.L716
	.loc 3 1363 9
	movq	-24(%rbp), %rax
	movq	%rax, %rdi
	call	_ZL6doFreePv
	jmp	.L712
.L716:
	.loc 3 1356 2
	nop
.L712:
	.loc 3 1364 2
	leave
	.cfi_def_cfa 7, 8
	ret
	.cfi_endproc
.LFE2883:
	.section	.gcc_except_table
.LLSDA2883:
	.byte	0xff
	.byte	0xff
	.byte	0x1
	.uleb128 .LLSDACSE2883-.LLSDACSB2883
.LLSDACSB2883:
.LLSDACSE2883:
	.text
	.size	free, .-free
	.globl	malloc_alignment
	.type	malloc_alignment, @function
malloc_alignment:
.LFB2884:
	.loc 3 1368 2
	.cfi_startproc
	endbr64
	pushq	%rbp
	.cfi_def_cfa_offset 16
	.cfi_offset 6, -16
	movq	%rsp, %rbp
	.cfi_def_cfa_register 6
	movq	%rdi, -24(%rbp)
	.loc 3 1369 26
	cmpq	$0, -24(%rbp)
	sete	%al
	.loc 3 1369 24
	movzbl	%al, %eax
	.loc 3 1369 2
	testq	%rax, %rax
	je	.L718
	.loc 3 1369 70 discriminator 1
	movl	$16, %eax
	jmp	.L719
.L718:
	.loc 3 1370 30
	movq	-24(%rbp), %rax
	subq	$16, %rax
	movq	%rax, -8(%rbp)
	.loc 3 1371 66
	movq	-8(%rbp), %rax
	movq	(%rax), %rax
	.loc 3 1371 78
	andl	$1, %eax
	.loc 3 1371 26
	testq	%rax, %rax
	setne	%al
	.loc 3 1371 24
	movzbl	%al, %eax
	.loc 3 1371 2
	testq	%rax, %rax
	je	.L720
	.loc 3 1372 41
	movq	-8(%rbp), %rax
	movq	(%rax), %rax
	.loc 3 1372 59
	andq	$-2, %rax
	jmp	.L719
.L720:
	.loc 3 1374 14
	movl	$16, %eax
.L719:
	.loc 3 1376 2
	popq	%rbp
	.cfi_def_cfa 7, 8
	ret
	.cfi_endproc
.LFE2884:
	.size	malloc_alignment, .-malloc_alignment
	.globl	malloc_zero_fill
	.type	malloc_zero_fill, @function
malloc_zero_fill:
.LFB2885:
	.loc 3 1380 2
	.cfi_startproc
	endbr64
	pushq	%rbp
	.cfi_def_cfa_offset 16
	.cfi_offset 6, -16
	movq	%rsp, %rbp
	.cfi_def_cfa_register 6
	movq	%rdi, -24(%rbp)
	.loc 3 1381 26
	cmpq	$0, -24(%rbp)
	sete	%al
	.loc 3 1381 24
	movzbl	%al, %eax
	.loc 3 1381 2
	testq	%rax, %rax
	je	.L722
	.loc 3 1381 65 discriminator 1
	movl	$0, %eax
	jmp	.L723
.L722:
	.loc 3 1382 30
	movq	-24(%rbp), %rax
	subq	$16, %rax
	movq	%rax, -8(%rbp)
	.loc 3 1383 66
	movq	-8(%rbp), %rax
	movq	(%rax), %rax
	.loc 3 1383 78
	andl	$1, %eax
	.loc 3 1383 26
	testq	%rax, %rax
	setne	%al
	.loc 3 1383 24
	movzbl	%al, %eax
	.loc 3 1383 2
	testq	%rax, %rax
	je	.L724
	.loc 3 1384 91
	movq	-8(%rbp), %rax
	movq	8(%rax), %rax
	.loc 3 1384 65
	negq	%rax
	.loc 3 1384 9
	addq	%rax, -8(%rbp)
.L724:
	.loc 3 1386 43
	movq	-8(%rbp), %rax
	movq	(%rax), %rax
	.loc 3 1386 55
	andl	$2, %eax
	.loc 3 1386 61
	testq	%rax, %rax
	setne	%al
.L723:
	.loc 3 1387 2
	popq	%rbp
	.cfi_def_cfa 7, 8
	ret
	.cfi_endproc
.LFE2885:
	.size	malloc_zero_fill, .-malloc_zero_fill
	.globl	malloc_size
	.type	malloc_size, @function
malloc_size:
.LFB2886:
	.loc 3 1391 2
	.cfi_startproc
	endbr64
	pushq	%rbp
	.cfi_def_cfa_offset 16
	.cfi_offset 6, -16
	movq	%rsp, %rbp
	.cfi_def_cfa_register 6
	movq	%rdi, -24(%rbp)
	.loc 3 1392 26
	cmpq	$0, -24(%rbp)
	sete	%al
	.loc 3 1392 24
	movzbl	%al, %eax
	.loc 3 1392 2
	testq	%rax, %rax
	je	.L726
	.loc 3 1392 65 discriminator 1
	movl	$0, %eax
	jmp	.L727
.L726:
	.loc 3 1393 30
	movq	-24(%rbp), %rax
	subq	$16, %rax
	movq	%rax, -8(%rbp)
	.loc 3 1394 66
	movq	-8(%rbp), %rax
	movq	(%rax), %rax
	.loc 3 1394 78
	andl	$1, %eax
	.loc 3 1394 26
	testq	%rax, %rax
	setne	%al
	.loc 3 1394 24
	movzbl	%al, %eax
	.loc 3 1394 2
	testq	%rax, %rax
	je	.L728
	.loc 3 1395 91
	movq	-8(%rbp), %rax
	movq	8(%rax), %rax
	.loc 3 1395 65
	negq	%rax
	.loc 3 1395 9
	addq	%rax, -8(%rbp)
.L728:
	.loc 3 1397 33
	movq	-8(%rbp), %rax
	movq	8(%rax), %rax
.L727:
	.loc 3 1398 2
	popq	%rbp
	.cfi_def_cfa 7, 8
	ret
	.cfi_endproc
.LFE2886:
	.size	malloc_size, .-malloc_size
	.section	.rodata
.LC48:
	.string	"malloc_usable_size"
	.text
	.globl	malloc_usable_size
	.type	malloc_usable_size, @function
malloc_usable_size:
.LFB2887:
	.loc 3 1403 2
	.cfi_startproc
	.cfi_personality 0x9b,DW.ref.__gxx_personality_v0
	.cfi_lsda 0x1b,.LLSDA2887
	endbr64
	pushq	%rbp
	.cfi_def_cfa_offset 16
	.cfi_offset 6, -16
	movq	%rsp, %rbp
	.cfi_def_cfa_register 6
	subq	$160, %rsp
	movq	%rdi, -152(%rbp)
	.loc 3 1403 2
	movq	%fs:40, %rax
	movq	%rax, -8(%rbp)
	xorl	%eax, %eax
	.loc 3 1404 26
	cmpq	$0, -152(%rbp)
	sete	%al
	.loc 3 1404 24
	movzbl	%al, %eax
	.loc 3 1404 2
	testq	%rax, %rax
	je	.L730
	.loc 3 1404 65 discriminator 1
	movl	$0, %eax
	jmp	.L756
.L730:
	leaq	.LC48(%rip), %rax
	movq	%rax, -96(%rbp)
	movq	-152(%rbp), %rax
	movq	%rax, -88(%rbp)
.LBB1147:
.LBB1148:
	.loc 3 689 13
	movq	-88(%rbp), %rax
	subq	$16, %rax
	.loc 3 689 9
	movq	%rax, -128(%rbp)
	.loc 3 691 16
	movq	-128(%rbp), %rdx
	.loc 3 691 38
	movq	8+_ZL10heapMaster(%rip), %rax
	.loc 3 691 14
	cmpq	%rax, %rdx
	setb	%al
	movzbl	%al, %eax
	movb	%al, -134(%rbp)
	andb	$1, -134(%rbp)
	movq	-96(%rbp), %rax
	movq	%rax, -80(%rbp)
	movq	-88(%rbp), %rax
	movq	%rax, -72(%rbp)
.LBB1149:
.LBB1150:
	.loc 3 650 24
	movzbl	-134(%rbp), %eax
	.loc 3 650 2
	testq	%rax, %rax
	je	.L762
	.loc 3 651 8
	movq	-72(%rbp), %rdx
	movq	-80(%rbp), %rax
	movq	%rax, %rsi
	leaq	.LC35(%rip), %rax
	movq	%rax, %rdi
	movl	$0, %eax
	call	_Z5abortPKcz@PLT
.L762:
	.loc 3 655 2
	nop
.LBE1150:
.LBE1149:
.LBB1151:
	.loc 3 693 40
	movq	-128(%rbp), %rax
	.loc 3 693 66
	movq	(%rax), %rax
	.loc 3 693 76
	andl	$7, %eax
	.loc 3 693 26
	testq	%rax, %rax
	sete	%al
	.loc 3 693 24
	movzbl	%al, %eax
	.loc 3 693 2
	testq	%rax, %rax
	je	.L733
	.loc 3 694 13
	movq	-128(%rbp), %rax
	.loc 3 694 37
	movq	(%rax), %rax
	.loc 3 694 11
	movq	%rax, -120(%rbp)
	.loc 3 695 12
	movq	$16, -104(%rbp)
	jmp	.L734
.L733:
	leaq	-128(%rbp), %rax
	movq	%rax, -64(%rbp)
	leaq	-104(%rbp), %rax
	movq	%rax, -56(%rbp)
.LBB1152:
.LBB1153:
.LBB1154:
	.loc 3 676 40
	movq	-64(%rbp), %rax
	movq	(%rax), %rax
	.loc 3 676 66
	movq	(%rax), %rax
	.loc 3 676 78
	andl	$1, %eax
	.loc 3 676 26
	testq	%rax, %rax
	setne	%al
	.loc 3 676 24
	movzbl	%al, %eax
	.loc 3 676 2
	testq	%rax, %rax
	je	.L735
	.loc 3 677 20
	movq	-64(%rbp), %rax
	movq	(%rax), %rax
	.loc 3 677 46
	movq	(%rax), %rax
	.loc 3 677 58
	andq	$-2, %rax
	movq	%rax, %rdx
	.loc 3 677 12
	movq	-56(%rbp), %rax
	movq	%rdx, (%rax)
	.loc 3 678 13
	movq	-56(%rbp), %rax
	movq	(%rax), %rax
	movq	%rax, -48(%rbp)
.LBB1155:
.LBB1156:
	.loc 3 642 42
	cmpq	$15, -48(%rbp)
	setbe	%al
	.loc 3 642 24
	movzbl	%al, %eax
	testq	%rax, %rax
	jne	.L736
	movq	-48(%rbp), %rax
	movq	%rax, -40(%rbp)
.LBB1157:
.LBB1158:
	.loc 4 40 27
	movq	-40(%rbp), %rax
	subq	$1, %rax
	.loc 4 40 17
	andq	-40(%rbp), %rax
	.loc 4 40 38
	testq	%rax, %rax
	sete	%al
.LBE1158:
.LBE1157:
	.loc 3 642 62
	xorl	$1, %eax
	.loc 3 642 24
	movzbl	%al, %eax
	testq	%rax, %rax
	je	.L738
.L736:
	movl	$1, %eax
	jmp	.L739
.L738:
	movl	$0, %eax
.L739:
	movzbl	%al, %eax
	testq	%rax, %rax
	setne	%al
	.loc 3 642 2
	testb	%al, %al
	je	.L763
	.loc 3 643 8
	movq	-48(%rbp), %rax
	movl	$16, %edx
	movq	%rax, %rsi
	leaq	.LC36(%rip), %rax
	movq	%rax, %rdi
	movl	$0, %eax
	call	_Z5abortPKcz@PLT
.L763:
	.loc 3 645 2
	nop
.LBE1156:
.LBE1155:
	.loc 3 679 58
	movq	-64(%rbp), %rax
	movq	(%rax), %rdx
	.loc 3 679 67
	movq	-64(%rbp), %rax
	movq	(%rax), %rax
	.loc 3 679 91
	movq	8(%rax), %rax
	.loc 3 679 65
	negq	%rax
	.loc 3 679 13
	addq	%rax, %rdx
	.loc 3 679 9
	movq	-64(%rbp), %rax
	movq	%rdx, (%rax)
	.loc 3 683 2
	jmp	.L764
.L735:
	.loc 3 681 12
	movq	-56(%rbp), %rax
	movq	$16, (%rax)
.L764:
	.loc 3 683 2
	nop
.LBE1154:
.LBE1153:
.LBB1159:
	.loc 3 698 40
	movq	-128(%rbp), %rax
	.loc 3 698 66
	movq	(%rax), %rax
	.loc 3 698 78
	andl	$4, %eax
	.loc 3 698 26
	testq	%rax, %rax
	setne	%al
	.loc 3 698 24
	movzbl	%al, %eax
	.loc 3 698 2
	testq	%rax, %rax
	je	.L742
.LBB1160:
.LBB1161:
	.loc 3 699 22
	movq	8+_ZL10heapMaster(%rip), %rax
	.loc 3 699 2
	cmpq	%rax, -88(%rbp)
	jb	.L743
	.loc 3 699 48
	movq	16+_ZL10heapMaster(%rip), %rax
	.loc 3 699 7
	cmpq	%rax, -88(%rbp)
	ja	.L743
.LBB1162:
	.loc 3 699 70
	movl	$137, %edx
	leaq	.LC37(%rip), %rax
	movq	%rax, %rsi
	movl	$2, %edi
	call	write@PLT
	.loc 3 699 59
	movl	%eax, -132(%rbp)
	.loc 3 699 419
	call	abort@PLT
.L743:
.LBE1162:
.LBE1161:
	.loc 3 700 78
	movq	-128(%rbp), %rax
	.loc 3 700 102
	movq	(%rax), %rax
	.loc 3 700 114
	andq	$-8, %rax
	.loc 3 700 7
	movq	%rax, -112(%rbp)
	.loc 3 701 9
	jmp	.L744
.L742:
.LBE1160:
.LBE1159:
	.loc 3 704 77
	movq	-128(%rbp), %rax
	.loc 3 704 101
	movq	(%rax), %rax
	.loc 3 704 108
	andq	$-8, %rax
	.loc 3 704 11
	movq	%rax, -120(%rbp)
.L734:
.LBE1152:
.LBE1151:
	.loc 3 706 9
	movq	-120(%rbp), %rax
	.loc 3 706 21
	movq	32(%rax), %rax
	.loc 3 706 7
	movq	%rax, -112(%rbp)
	.loc 3 709 16
	movq	-128(%rbp), %rdx
	.loc 3 709 38
	movq	8+_ZL10heapMaster(%rip), %rax
	.loc 3 709 48
	cmpq	%rax, %rdx
	jb	.L745
	.loc 3 709 64
	movq	16+_ZL10heapMaster(%rip), %rdx
	.loc 3 709 74
	movq	-128(%rbp), %rax
	.loc 3 709 48
	cmpq	%rax, %rdx
	jnb	.L746
.L745:
	movl	$1, %eax
	jmp	.L747
.L746:
	movl	$0, %eax
.L747:
	.loc 3 709 14
	movzbl	%al, %eax
	movb	%al, -133(%rbp)
	andb	$1, -133(%rbp)
	movq	-96(%rbp), %rax
	movq	%rax, -32(%rbp)
	movq	-88(%rbp), %rax
	movq	%rax, -24(%rbp)
.LBB1163:
.LBB1164:
	.loc 3 650 24
	movzbl	-133(%rbp), %eax
	.loc 3 650 2
	testq	%rax, %rax
	je	.L765
	.loc 3 651 8
	movq	-24(%rbp), %rdx
	movq	-32(%rbp), %rax
	movq	%rax, %rsi
	leaq	.LC35(%rip), %rax
	movq	%rax, %rdi
	movl	$0, %eax
	call	_Z5abortPKcz@PLT
.L765:
	.loc 3 655 2
	nop
.LBE1164:
.LBE1163:
	.loc 3 712 32
	movq	-120(%rbp), %rax
	.loc 3 712 41
	testq	%rax, %rax
	sete	%al
	.loc 3 712 24
	movzbl	%al, %eax
	testq	%rax, %rax
	jne	.L749
	.loc 3 712 71
	movq	-120(%rbp), %rax
	.loc 3 712 69
	movq	24(%rax), %rax
	movq	%rax, -16(%rbp)
	.loc 3 712 97
	movq	-120(%rbp), %rdx
	.loc 3 712 108
	movq	-16(%rbp), %rax
	.loc 3 712 141
	cmpq	%rax, %rdx
	jb	.L750
	.loc 3 712 144
	movq	-16(%rbp), %rax
	leaq	3640(%rax), %rdx
	.loc 3 712 200
	movq	-120(%rbp), %rax
	.loc 3 712 141
	cmpq	%rax, %rdx
	ja	.L751
.L750:
	movl	$1, %eax
	jmp	.L752
.L751:
	movl	$0, %eax
.L752:
	.loc 3 712 24
	movzbl	%al, %eax
	testq	%rax, %rax
	je	.L753
.L749:
	movl	$1, %eax
	jmp	.L754
.L753:
	movl	$0, %eax
.L754:
	movzbl	%al, %eax
	testq	%rax, %rax
	setne	%al
	.loc 3 712 2
	testb	%al, %al
	je	.L766
	.loc 3 716 8
	movq	-88(%rbp), %rdx
	movq	-96(%rbp), %rax
	movq	%rax, %rsi
	leaq	.LC38(%rip), %rax
	movq	%rax, %rdi
	movl	$0, %eax
	call	_Z5abortPKcz@PLT
.L766:
	.loc 3 722 9
	nop
.L744:
.LBE1148:
.LBE1147:
	.loc 3 1410 17
	movq	-112(%rbp), %rax
	.loc 3 1410 39
	movq	-128(%rbp), %rcx
	.loc 3 1410 37
	movq	-152(%rbp), %rdx
	subq	%rcx, %rdx
	.loc 3 1410 59
	subq	%rdx, %rax
.L756:
	.loc 3 1411 2 discriminator 1
	movq	-8(%rbp), %rdx
	subq	%fs:40, %rdx
	je	.L757
	.loc 3 1411 2 is_stmt 0
	call	__stack_chk_fail@PLT
.L757:
	leave
	.cfi_def_cfa 7, 8
	ret
	.cfi_endproc
.LFE2887:
	.section	.gcc_except_table
.LLSDA2887:
	.byte	0xff
	.byte	0xff
	.byte	0x1
	.uleb128 .LLSDACSE2887-.LLSDACSB2887
.LLSDACSB2887:
.LLSDACSE2887:
	.text
	.size	malloc_usable_size, .-malloc_usable_size
	.section	.rodata
	.align 8
.LC49:
	.string	"malloc_stats statistics disabled.\n"
.LC50:
	.string	"write failed in malloc_stats"
	.text
	.globl	malloc_stats
	.type	malloc_stats, @function
malloc_stats:
.LFB2888:
	.loc 3 1415 2 is_stmt 1
	.cfi_startproc
	.cfi_personality 0x9b,DW.ref.__gxx_personality_v0
	.cfi_lsda 0x1b,.LLSDA2888
	endbr64
	pushq	%rbp
	.cfi_def_cfa_offset 16
	.cfi_offset 6, -16
	movq	%rsp, %rbp
	.cfi_def_cfa_register 6
	.loc 3 1422 13
	movl	$34, %edx
	leaq	.LC49(%rip), %rax
	movq	%rax, %rsi
	movl	$2, %edi
	call	write@PLT
	.loc 3 1422 99
	cmpq	$-1, %rax
	sete	%al
	.loc 3 1422 2
	testb	%al, %al
	je	.L769
	.loc 3 1424 8
	leaq	.LC50(%rip), %rax
	movq	%rax, %rdi
	movl	$0, %eax
	call	_Z5abortPKcz@PLT
.L769:
	.loc 3 1426 2
	nop
	popq	%rbp
	.cfi_def_cfa 7, 8
	ret
	.cfi_endproc
.LFE2888:
	.section	.gcc_except_table
.LLSDA2888:
	.byte	0xff
	.byte	0xff
	.byte	0x1
	.uleb128 .LLSDACSE2888-.LLSDACSB2888
.LLSDACSB2888:
.LLSDACSE2888:
	.text
	.size	malloc_stats, .-malloc_stats
	.globl	malloc_stats_fd
	.type	malloc_stats_fd, @function
malloc_stats_fd:
.LFB2889:
	.loc 3 1430 2
	.cfi_startproc
	endbr64
	pushq	%rbp
	.cfi_def_cfa_offset 16
	.cfi_offset 6, -16
	movq	%rsp, %rbp
	.cfi_def_cfa_register 6
	movl	%edi, -4(%rbp)
	.loc 3 1436 11
	movl	$-1, %eax
	.loc 3 1438 2
	popq	%rbp
	.cfi_def_cfa 7, 8
	ret
	.cfi_endproc
.LFE2889:
	.size	malloc_stats_fd, .-malloc_stats_fd
	.globl	malloc_info
	.type	malloc_info, @function
malloc_info:
.LFB2890:
	.loc 3 1444 79
	.cfi_startproc
	endbr64
	pushq	%rbp
	.cfi_def_cfa_offset 16
	.cfi_offset 6, -16
	movq	%rsp, %rbp
	.cfi_def_cfa_register 6
	subq	$16, %rsp
	movl	%edi, -4(%rbp)
	movq	%rsi, -16(%rbp)
	.loc 3 1445 2
	cmpl	$0, -4(%rbp)
	je	.L773
	.loc 3 1445 23 discriminator 1
	call	__errno_location@PLT
	.loc 3 1445 2 discriminator 1
	movl	$22, (%rax)
	.loc 3 1445 13 discriminator 1
	movl	$-1, %eax
	jmp	.L774
.L773:
	.loc 3 1451 9
	movl	$0, %eax
.L774:
	.loc 3 1453 2
	leave
	.cfi_def_cfa 7, 8
	ret
	.cfi_endproc
.LFE2890:
	.size	malloc_info, .-malloc_info
	.globl	mallopt
	.type	mallopt, @function
mallopt:
.LFB2891:
	.loc 3 1458 2
	.cfi_startproc
	.cfi_personality 0x9b,DW.ref.__gxx_personality_v0
	.cfi_lsda 0x1b,.LLSDA2891
	endbr64
	pushq	%rbp
	.cfi_def_cfa_offset 16
	.cfi_offset 6, -16
	movq	%rsp, %rbp
	.cfi_def_cfa_register 6
	subq	$80, %rsp
	movl	%edi, -68(%rbp)
	movl	%esi, -72(%rbp)
	.loc 3 1459 2
	cmpl	$0, -72(%rbp)
	jns	.L776
	.loc 3 1459 26 discriminator 1
	movl	$0, %eax
	jmp	.L777
.L776:
	.loc 3 1460 2
	cmpl	$-3, -68(%rbp)
	je	.L778
	cmpl	$-2, -68(%rbp)
	jne	.L779
	.loc 3 1462 37
	movq	32+_ZL10heapMaster(%rip), %rax
	movl	-72(%rbp), %edx
	movslq	%edx, %rdx
	movq	%rdx, -48(%rbp)
	movq	%rax, -40(%rbp)
	movq	-40(%rbp), %rax
	movq	%rax, -32(%rbp)
.LBB1165:
.LBB1166:
.LBB1167:
.LBB1168:
.LBB1169:
	.loc 4 40 27
	movq	-32(%rbp), %rax
	subq	$1, %rax
	.loc 4 40 17
	andq	-32(%rbp), %rax
	.loc 4 40 38
	testq	%rax, %rax
	sete	%al
.LBE1169:
.LBE1168:
	.loc 4 56 7
	xorl	$1, %eax
	.loc 4 56 2
	testb	%al, %al
	je	.L781
.LBB1170:
	.loc 4 56 95
	movl	$50, %edx
	leaq	.LC1(%rip), %rax
	movq	%rax, %rsi
	movl	$2, %edi
	call	write@PLT
	.loc 4 56 84
	movl	%eax, -56(%rbp)
	.loc 4 56 173
	call	abort@PLT
.L781:
.LBE1170:
.LBE1167:
	.loc 4 58 18
	movq	-48(%rbp), %rax
	negq	%rax
	movq	%rax, -24(%rbp)
	movq	-40(%rbp), %rax
	movq	%rax, -16(%rbp)
	movq	-16(%rbp), %rax
	movq	%rax, -8(%rbp)
.LBB1171:
.LBB1172:
.LBB1173:
.LBB1174:
.LBB1175:
	.loc 4 40 27
	movq	-8(%rbp), %rax
	subq	$1, %rax
	.loc 4 40 17
	andq	-8(%rbp), %rax
	.loc 4 40 38
	testq	%rax, %rax
	sete	%al
.LBE1175:
.LBE1174:
	.loc 4 47 7
	xorl	$1, %eax
	.loc 4 47 2
	testb	%al, %al
	je	.L783
.LBB1176:
	.loc 4 47 95
	movl	$50, %edx
	leaq	.LC2(%rip), %rax
	movq	%rax, %rsi
	movl	$2, %edi
	call	write@PLT
	.loc 4 47 84
	movl	%eax, -52(%rbp)
	.loc 4 47 173
	call	abort@PLT
.L783:
.LBE1176:
.LBE1173:
	.loc 4 49 17
	movq	-16(%rbp), %rax
	negq	%rax
	.loc 4 49 19
	andq	-24(%rbp), %rax
.LBE1172:
.LBE1171:
	.loc 4 58 36
	negq	%rax
.LBE1166:
.LBE1165:
	.loc 3 1462 26
	movq	%rax, 40+_ZL10heapMaster(%rip)
	.loc 3 1463 9
	movl	$1, %eax
	jmp	.L777
.L778:
	.loc 3 1465 20
	movl	-72(%rbp), %eax
	cltq
	movq	%rax, %rdi
	call	_ZL12setMmapStartm
	.loc 3 1465 2
	testb	%al, %al
	je	.L787
	.loc 3 1465 39 discriminator 1
	movl	$1, %eax
	jmp	.L777
.L787:
	.loc 3 1466 2
	nop
.L779:
	.loc 3 1468 9
	movl	$0, %eax
.L777:
	.loc 3 1469 2
	leave
	.cfi_def_cfa 7, 8
	ret
	.cfi_endproc
.LFE2891:
	.section	.gcc_except_table
.LLSDA2891:
	.byte	0xff
	.byte	0xff
	.byte	0x1
	.uleb128 .LLSDACSE2891-.LLSDACSB2891
.LLSDACSB2891:
.LLSDACSE2891:
	.text
	.size	mallopt, .-mallopt
	.globl	malloc_trim
	.type	malloc_trim, @function
malloc_trim:
.LFB2892:
	.loc 3 1473 2
	.cfi_startproc
	endbr64
	pushq	%rbp
	.cfi_def_cfa_offset 16
	.cfi_offset 6, -16
	movq	%rsp, %rbp
	.cfi_def_cfa_register 6
	movq	%rdi, -8(%rbp)
	.loc 3 1474 9
	movl	$0, %eax
	.loc 3 1475 2
	popq	%rbp
	.cfi_def_cfa 7, 8
	ret
	.cfi_endproc
.LFE2892:
	.size	malloc_trim, .-malloc_trim
	.globl	malloc_get_state
	.type	malloc_get_state, @function
malloc_get_state:
.LFB2893:
	.loc 3 1482 2
	.cfi_startproc
	endbr64
	pushq	%rbp
	.cfi_def_cfa_offset 16
	.cfi_offset 6, -16
	movq	%rsp, %rbp
	.cfi_def_cfa_register 6
	.loc 3 1483 9
	movl	$0, %eax
	.loc 3 1484 2
	popq	%rbp
	.cfi_def_cfa 7, 8
	ret
	.cfi_endproc
.LFE2893:
	.size	malloc_get_state, .-malloc_get_state
	.globl	malloc_set_state
	.type	malloc_set_state, @function
malloc_set_state:
.LFB2894:
	.loc 3 1489 2
	.cfi_startproc
	endbr64
	pushq	%rbp
	.cfi_def_cfa_offset 16
	.cfi_offset 6, -16
	movq	%rsp, %rbp
	.cfi_def_cfa_register 6
	movq	%rdi, -8(%rbp)
	.loc 3 1490 9
	movl	$0, %eax
	.loc 3 1491 2
	popq	%rbp
	.cfi_def_cfa 7, 8
	ret
	.cfi_endproc
.LFE2894:
	.size	malloc_set_state, .-malloc_set_state
	.weak	malloc_expansion
	.type	malloc_expansion, @function
malloc_expansion:
.LFB2895:
	.loc 3 1495 57
	.cfi_startproc
	endbr64
	pushq	%rbp
	.cfi_def_cfa_offset 16
	.cfi_offset 6, -16
	movq	%rsp, %rbp
	.cfi_def_cfa_register 6
	.loc 3 1495 66
	movl	$10485760, %eax
	.loc 3 1495 95
	popq	%rbp
	.cfi_def_cfa 7, 8
	ret
	.cfi_endproc
.LFE2895:
	.size	malloc_expansion, .-malloc_expansion
	.weak	malloc_mmap_start
	.type	malloc_mmap_start, @function
malloc_mmap_start:
.LFB2896:
	.loc 3 1498 58
	.cfi_startproc
	endbr64
	pushq	%rbp
	.cfi_def_cfa_offset 16
	.cfi_offset 6, -16
	movq	%rsp, %rbp
	.cfi_def_cfa_register 6
	.loc 3 1498 67
	movl	$524289, %eax
	.loc 3 1498 92
	popq	%rbp
	.cfi_def_cfa 7, 8
	ret
	.cfi_endproc
.LFE2896:
	.size	malloc_mmap_start, .-malloc_mmap_start
	.weak	malloc_unfreed
	.type	malloc_unfreed, @function
malloc_unfreed:
.LFB2897:
	.loc 3 1501 55
	.cfi_startproc
	endbr64
	pushq	%rbp
	.cfi_def_cfa_offset 16
	.cfi_offset 6, -16
	movq	%rsp, %rbp
	.cfi_def_cfa_register 6
	.loc 3 1501 64
	movl	$0, %eax
	.loc 3 1501 91
	popq	%rbp
	.cfi_def_cfa 7, 8
	ret
	.cfi_endproc
.LFE2897:
	.size	malloc_unfreed, .-malloc_unfreed
	.globl	_Z6resizePvmm
	.type	_Z6resizePvmm, @function
_Z6resizePvmm:
.LFB2898:
	.loc 3 1506 2
	.cfi_startproc
	.cfi_personality 0x9b,DW.ref.__gxx_personality_v0
	.cfi_lsda 0x1b,.LLSDA2898
	endbr64
	pushq	%rbp
	.cfi_def_cfa_offset 16
	.cfi_offset 6, -16
	movq	%rsp, %rbp
	.cfi_def_cfa_register 6
	subq	$208, %rsp
	movq	%rdi, -184(%rbp)
	movq	%rsi, -192(%rbp)
	movq	%rdx, -200(%rbp)
	.loc 3 1506 2
	movq	%fs:40, %rax
	movq	%rax, -8(%rbp)
	xorl	%eax, %eax
	.loc 3 1507 26
	cmpq	$0, -184(%rbp)
	sete	%al
	.loc 3 1507 24
	movzbl	%al, %eax
	.loc 3 1507 2
	testq	%rax, %rax
	je	.L801
	.loc 3 1508 25
	movq	-200(%rbp), %rdx
	movq	-192(%rbp), %rax
	movq	%rdx, %rsi
	movq	%rax, %rdi
	call	_ZL15memalignNoStatsmm
	.loc 3 1508 41
	jmp	.L845
.L801:
	.loc 3 1511 26
	movzbl	_ZN13uKernelModule23kernelModuleInitializedE(%rip), %eax
	xorl	$1, %eax
	.loc 3 1511 24
	movzbl	%al, %eax
	.loc 3 1511 2
	testq	%rax, %rax
	je	.L803
	.loc 3 1511 112 discriminator 1
	call	_ZN13uKernelModule7startupEv@PLT
	.loc 3 1511 134 discriminator 1
	call	_Z15heapManagerCtorv
.L803:
	.loc 3 1511 168 discriminator 3
	cmpq	$0, -200(%rbp)
	sete	%al
	.loc 3 1511 166 discriminator 3
	movzbl	%al, %eax
	.loc 3 1511 144 discriminator 3
	testq	%rax, %rax
	jne	.L804
	.loc 3 1511 214 discriminator 5
	cmpq	$-17, -200(%rbp)
	seta	%al
	.loc 3 1511 212 discriminator 5
	movzbl	%al, %eax
	.loc 3 1511 192 discriminator 5
	testq	%rax, %rax
	je	.L805
.L804:
	.loc 3 1511 52 discriminator 6
	movq	-184(%rbp), %rax
	movq	%rax, %rdi
	call	_ZL6doFreePv
	.loc 3 1511 71 discriminator 6
	movl	$0, %eax
	jmp	.L845
.L805:
	.loc 3 1514 41
	movq	-184(%rbp), %rax
	subq	$16, %rax
	.loc 3 1514 30
	movq	%rax, -160(%rbp)
	.loc 3 1515 56
	movq	-160(%rbp), %rax
	movq	(%rax), %rax
	.loc 3 1515 68
	andl	$1, %eax
	.loc 3 1515 7
	testq	%rax, %rax
	setne	%al
	movb	%al, -167(%rbp)
.LBB1177:
	.loc 3 1518 24
	movzbl	-167(%rbp), %eax
	.loc 3 1518 2
	testq	%rax, %rax
	je	.L806
	movq	-192(%rbp), %rax
	movq	%rax, -112(%rbp)
.LBB1178:
.LBB1179:
.LBB1180:
	.loc 3 642 42
	cmpq	$15, -112(%rbp)
	setbe	%al
	.loc 3 642 24
	movzbl	%al, %eax
	testq	%rax, %rax
	jne	.L807
	movq	-112(%rbp), %rax
	movq	%rax, -104(%rbp)
.LBB1181:
.LBB1182:
	.loc 4 40 27
	movq	-104(%rbp), %rax
	subq	$1, %rax
	.loc 4 40 17
	andq	-104(%rbp), %rax
	.loc 4 40 38
	testq	%rax, %rax
	sete	%al
.LBE1182:
.LBE1181:
	.loc 3 642 62
	xorl	$1, %eax
	.loc 3 642 24
	movzbl	%al, %eax
	testq	%rax, %rax
	je	.L809
.L807:
	movl	$1, %eax
	jmp	.L810
.L809:
	movl	$0, %eax
.L810:
	movzbl	%al, %eax
	testq	%rax, %rax
	setne	%al
	.loc 3 642 2
	testb	%al, %al
	je	.L852
	.loc 3 643 8
	movq	-112(%rbp), %rax
	movl	$16, %edx
	movq	%rax, %rsi
	leaq	.LC36(%rip), %rax
	movq	%rax, %rdi
	movl	$0, %eax
	call	_Z5abortPKcz@PLT
.L852:
	.loc 3 645 2
	nop
.LBE1180:
.LBE1179:
	.loc 3 1520 43
	movq	-160(%rbp), %rax
	movq	(%rax), %rax
	.loc 3 1520 9
	andq	$-2, %rax
	movq	%rax, -128(%rbp)
.LBB1183:
	.loc 3 1521 52
	movq	-184(%rbp), %rax
	movl	$0, %edx
	divq	-192(%rbp)
	movq	%rdx, %rax
	.loc 3 1521 61
	testq	%rax, %rax
	sete	%al
	.loc 3 1521 24
	movzbl	%al, %eax
	testq	%rax, %rax
	je	.L812
	.loc 3 1521 78 discriminator 1
	movq	-128(%rbp), %rax
	cmpq	-192(%rbp), %rax
	setbe	%al
	.loc 3 1521 24 discriminator 1
	movzbl	%al, %eax
	testq	%rax, %rax
	jne	.L813
	.loc 3 1521 100 discriminator 4
	movq	-128(%rbp), %rax
	cmpq	-192(%rbp), %rax
	setnb	%al
	.loc 3 1521 24 discriminator 4
	movzbl	%al, %eax
	testq	%rax, %rax
	je	.L814
	.loc 3 1521 120 discriminator 5
	cmpq	$256, -128(%rbp)
	setbe	%al
	.loc 3 1521 24 discriminator 5
	movzbl	%al, %eax
	testq	%rax, %rax
	je	.L814
	.loc 3 1521 24 is_stmt 0 discriminator 7
	movl	$1, %eax
	jmp	.L815
.L814:
	.loc 3 1521 24 discriminator 8
	movl	$0, %eax
.L815:
	.loc 3 1521 24 discriminator 10
	testb	%al, %al
	je	.L816
.L813:
	.loc 3 1521 24 discriminator 11
	movl	$1, %eax
	jmp	.L817
.L816:
	.loc 3 1521 24 discriminator 12
	movl	$0, %eax
.L817:
	.loc 3 1521 24 discriminator 14
	testb	%al, %al
	je	.L812
	.loc 3 1521 24 discriminator 15
	movl	$1, %eax
	jmp	.L818
.L812:
	.loc 3 1521 24 discriminator 16
	movl	$0, %eax
.L818:
	.loc 3 1521 24 discriminator 18
	movzbl	%al, %eax
	.loc 3 1521 2 is_stmt 1 discriminator 18
	testq	%rax, %rax
	je	.L819
.LBB1184:
	.loc 3 1525 4
	movq	-184(%rbp), %rax
	subq	$16, %rax
	.loc 3 1525 130
	movq	-192(%rbp), %rdx
	orq	$1, %rdx
	.loc 3 1525 115
	movq	%rdx, (%rax)
	leaq	.LC44(%rip), %rax
	movq	%rax, -96(%rbp)
	movq	-184(%rbp), %rax
	movq	%rax, -88(%rbp)
.LBB1185:
.LBB1186:
	.loc 3 689 13
	movq	-88(%rbp), %rax
	subq	$16, %rax
	.loc 3 689 9
	movq	%rax, -160(%rbp)
	.loc 3 691 16
	movq	-160(%rbp), %rdx
	.loc 3 691 38
	movq	8+_ZL10heapMaster(%rip), %rax
	.loc 3 691 14
	cmpq	%rax, %rdx
	setb	%al
	movzbl	%al, %eax
	movb	%al, -166(%rbp)
	andb	$1, -166(%rbp)
	movq	-96(%rbp), %rax
	movq	%rax, -80(%rbp)
	movq	-88(%rbp), %rax
	movq	%rax, -72(%rbp)
.LBB1187:
.LBB1188:
	.loc 3 650 24
	movzbl	-166(%rbp), %eax
	.loc 3 650 2
	testq	%rax, %rax
	je	.L853
	.loc 3 651 8
	movq	-72(%rbp), %rdx
	movq	-80(%rbp), %rax
	movq	%rax, %rsi
	leaq	.LC35(%rip), %rax
	movq	%rax, %rdi
	movl	$0, %eax
	call	_Z5abortPKcz@PLT
.L853:
	.loc 3 655 2
	nop
.LBE1188:
.LBE1187:
.LBB1189:
	.loc 3 693 40
	movq	-160(%rbp), %rax
	.loc 3 693 66
	movq	(%rax), %rax
	.loc 3 693 76
	andl	$7, %eax
	.loc 3 693 26
	testq	%rax, %rax
	sete	%al
	.loc 3 693 24
	movzbl	%al, %eax
	.loc 3 693 2
	testq	%rax, %rax
	je	.L821
	.loc 3 694 13
	movq	-160(%rbp), %rax
	.loc 3 694 37
	movq	(%rax), %rax
	.loc 3 694 11
	movq	%rax, -152(%rbp)
	.loc 3 695 12
	movq	$16, -136(%rbp)
	jmp	.L822
.L821:
	leaq	-160(%rbp), %rax
	movq	%rax, -64(%rbp)
	leaq	-136(%rbp), %rax
	movq	%rax, -56(%rbp)
.LBB1190:
.LBB1191:
.LBB1192:
	.loc 3 676 40
	movq	-64(%rbp), %rax
	movq	(%rax), %rax
	.loc 3 676 66
	movq	(%rax), %rax
	.loc 3 676 78
	andl	$1, %eax
	.loc 3 676 26
	testq	%rax, %rax
	setne	%al
	.loc 3 676 24
	movzbl	%al, %eax
	.loc 3 676 2
	testq	%rax, %rax
	je	.L823
	.loc 3 677 20
	movq	-64(%rbp), %rax
	movq	(%rax), %rax
	.loc 3 677 46
	movq	(%rax), %rax
	.loc 3 677 58
	andq	$-2, %rax
	movq	%rax, %rdx
	.loc 3 677 12
	movq	-56(%rbp), %rax
	movq	%rdx, (%rax)
	.loc 3 678 13
	movq	-56(%rbp), %rax
	movq	(%rax), %rax
	movq	%rax, -48(%rbp)
.LBB1193:
.LBB1194:
	.loc 3 642 42
	cmpq	$15, -48(%rbp)
	setbe	%al
	.loc 3 642 24
	movzbl	%al, %eax
	testq	%rax, %rax
	jne	.L824
	movq	-48(%rbp), %rax
	movq	%rax, -40(%rbp)
.LBB1195:
.LBB1196:
	.loc 4 40 27
	movq	-40(%rbp), %rax
	subq	$1, %rax
	.loc 4 40 17
	andq	-40(%rbp), %rax
	.loc 4 40 38
	testq	%rax, %rax
	sete	%al
.LBE1196:
.LBE1195:
	.loc 3 642 62
	xorl	$1, %eax
	.loc 3 642 24
	movzbl	%al, %eax
	testq	%rax, %rax
	je	.L826
.L824:
	movl	$1, %eax
	jmp	.L827
.L826:
	movl	$0, %eax
.L827:
	movzbl	%al, %eax
	testq	%rax, %rax
	setne	%al
	.loc 3 642 2
	testb	%al, %al
	je	.L854
	.loc 3 643 8
	movq	-48(%rbp), %rax
	movl	$16, %edx
	movq	%rax, %rsi
	leaq	.LC36(%rip), %rax
	movq	%rax, %rdi
	movl	$0, %eax
	call	_Z5abortPKcz@PLT
.L854:
	.loc 3 645 2
	nop
.LBE1194:
.LBE1193:
	.loc 3 679 58
	movq	-64(%rbp), %rax
	movq	(%rax), %rdx
	.loc 3 679 67
	movq	-64(%rbp), %rax
	movq	(%rax), %rax
	.loc 3 679 91
	movq	8(%rax), %rax
	.loc 3 679 65
	negq	%rax
	.loc 3 679 13
	addq	%rax, %rdx
	.loc 3 679 9
	movq	-64(%rbp), %rax
	movq	%rdx, (%rax)
	.loc 3 683 2
	jmp	.L855
.L823:
	.loc 3 681 12
	movq	-56(%rbp), %rax
	movq	$16, (%rax)
.L855:
	.loc 3 683 2
	nop
.LBE1192:
.LBE1191:
.LBB1197:
	.loc 3 698 40
	movq	-160(%rbp), %rax
	.loc 3 698 66
	movq	(%rax), %rax
	.loc 3 698 78
	andl	$4, %eax
	.loc 3 698 26
	testq	%rax, %rax
	setne	%al
	.loc 3 698 24
	movzbl	%al, %eax
	.loc 3 698 2
	testq	%rax, %rax
	je	.L830
.LBB1198:
.LBB1199:
	.loc 3 699 22
	movq	8+_ZL10heapMaster(%rip), %rax
	.loc 3 699 2
	cmpq	%rax, -88(%rbp)
	jb	.L831
	.loc 3 699 48
	movq	16+_ZL10heapMaster(%rip), %rax
	.loc 3 699 7
	cmpq	%rax, -88(%rbp)
	ja	.L831
.LBB1200:
	.loc 3 699 70
	movl	$137, %edx
	leaq	.LC37(%rip), %rax
	movq	%rax, %rsi
	movl	$2, %edi
	call	write@PLT
	.loc 3 699 59
	movl	%eax, -164(%rbp)
	.loc 3 699 419
	call	abort@PLT
.L831:
.LBE1200:
.LBE1199:
	.loc 3 700 78
	movq	-160(%rbp), %rax
	.loc 3 700 102
	movq	(%rax), %rax
	.loc 3 700 114
	andq	$-8, %rax
	.loc 3 700 7
	movq	%rax, -144(%rbp)
	.loc 3 701 9
	jmp	.L832
.L830:
.LBE1198:
.LBE1197:
	.loc 3 704 77
	movq	-160(%rbp), %rax
	.loc 3 704 101
	movq	(%rax), %rax
	.loc 3 704 108
	andq	$-8, %rax
	.loc 3 704 11
	movq	%rax, -152(%rbp)
.L822:
.LBE1190:
.LBE1189:
	.loc 3 706 9
	movq	-152(%rbp), %rax
	.loc 3 706 21
	movq	32(%rax), %rax
	.loc 3 706 7
	movq	%rax, -144(%rbp)
	.loc 3 709 16
	movq	-160(%rbp), %rdx
	.loc 3 709 38
	movq	8+_ZL10heapMaster(%rip), %rax
	.loc 3 709 48
	cmpq	%rax, %rdx
	jb	.L833
	.loc 3 709 64
	movq	16+_ZL10heapMaster(%rip), %rdx
	.loc 3 709 74
	movq	-160(%rbp), %rax
	.loc 3 709 48
	cmpq	%rax, %rdx
	jnb	.L834
.L833:
	movl	$1, %eax
	jmp	.L835
.L834:
	movl	$0, %eax
.L835:
	.loc 3 709 14
	movzbl	%al, %eax
	movb	%al, -165(%rbp)
	andb	$1, -165(%rbp)
	movq	-96(%rbp), %rax
	movq	%rax, -32(%rbp)
	movq	-88(%rbp), %rax
	movq	%rax, -24(%rbp)
.LBB1201:
.LBB1202:
	.loc 3 650 24
	movzbl	-165(%rbp), %eax
	.loc 3 650 2
	testq	%rax, %rax
	je	.L856
	.loc 3 651 8
	movq	-24(%rbp), %rdx
	movq	-32(%rbp), %rax
	movq	%rax, %rsi
	leaq	.LC35(%rip), %rax
	movq	%rax, %rdi
	movl	$0, %eax
	call	_Z5abortPKcz@PLT
.L856:
	.loc 3 655 2
	nop
.LBE1202:
.LBE1201:
	.loc 3 712 32
	movq	-152(%rbp), %rax
	.loc 3 712 41
	testq	%rax, %rax
	sete	%al
	.loc 3 712 24
	movzbl	%al, %eax
	testq	%rax, %rax
	jne	.L837
	.loc 3 712 71
	movq	-152(%rbp), %rax
	.loc 3 712 69
	movq	24(%rax), %rax
	movq	%rax, -16(%rbp)
	.loc 3 712 97
	movq	-152(%rbp), %rdx
	.loc 3 712 108
	movq	-16(%rbp), %rax
	.loc 3 712 141
	cmpq	%rax, %rdx
	jb	.L838
	.loc 3 712 144
	movq	-16(%rbp), %rax
	leaq	3640(%rax), %rdx
	.loc 3 712 200
	movq	-152(%rbp), %rax
	.loc 3 712 141
	cmpq	%rax, %rdx
	ja	.L839
.L838:
	movl	$1, %eax
	jmp	.L840
.L839:
	movl	$0, %eax
.L840:
	.loc 3 712 24
	movzbl	%al, %eax
	testq	%rax, %rax
	je	.L841
.L837:
	movl	$1, %eax
	jmp	.L842
.L841:
	movl	$0, %eax
.L842:
	movzbl	%al, %eax
	testq	%rax, %rax
	setne	%al
	.loc 3 712 2
	testb	%al, %al
	je	.L857
	.loc 3 716 8
	movq	-88(%rbp), %rdx
	movq	-96(%rbp), %rax
	movq	%rax, %rsi
	leaq	.LC38(%rip), %rax
	movq	%rax, %rdi
	movl	$0, %eax
	call	_Z5abortPKcz@PLT
.L857:
	.loc 3 722 9
	nop
.L832:
.LBE1186:
.LBE1185:
	.loc 3 1529 26
	movq	-144(%rbp), %rax
	.loc 3 1529 49
	movq	-160(%rbp), %rcx
	.loc 3 1529 47
	movq	-184(%rbp), %rdx
	subq	%rcx, %rdx
	.loc 3 1529 9
	subq	%rdx, %rax
	movq	%rax, -120(%rbp)
	.loc 3 1531 2
	movq	-200(%rbp), %rax
	cmpq	-120(%rbp), %rax
	ja	.L819
	.loc 3 1531 40 discriminator 1
	movq	-200(%rbp), %rax
	addq	%rax, %rax
	.loc 3 1531 22 discriminator 1
	cmpq	%rax, -120(%rbp)
	ja	.L819
	.loc 3 1532 4
	movq	-184(%rbp), %rax
	subq	$16, %rax
	.loc 3 1532 130
	movq	-192(%rbp), %rdx
	orq	$1, %rdx
	.loc 3 1532 115
	movq	%rdx, (%rax)
	.loc 3 1533 48
	movq	-160(%rbp), %rax
	movq	(%rax), %rdx
	movq	-160(%rbp), %rax
	andq	$-3, %rdx
	movq	%rdx, (%rax)
	.loc 3 1535 46
	movq	-160(%rbp), %rax
	movq	8(%rax), %rdx
	.loc 3 1535 13
	movq	-200(%rbp), %rax
	subq	%rdx, %rax
	movq	%rax, %rdi
	call	_ZL10incUnfreedm
	.loc 3 1537 26
	movq	-160(%rbp), %rax
	.loc 3 1537 31
	movq	-200(%rbp), %rdx
	movq	%rdx, 8(%rax)
	.loc 3 1541 9
	movq	-184(%rbp), %rax
	jmp	.L845
.L806:
.LBE1184:
.LBE1183:
.LBE1178:
	.loc 3 1544 14
	movzbl	-167(%rbp), %eax
	xorl	$1, %eax
	.loc 3 1544 9
	testb	%al, %al
	je	.L819
	.loc 3 1545 2
	cmpq	$16, -192(%rbp)
	jne	.L819
	.loc 3 1546 16
	movq	-200(%rbp), %rdx
	movq	-184(%rbp), %rax
	movq	%rdx, %rsi
	movq	%rax, %rdi
	call	resize
	.loc 3 1546 31
	jmp	.L845
.L819:
.LBE1177:
	.loc 3 1550 9
	movq	-184(%rbp), %rax
	movq	%rax, %rdi
	call	_ZL6doFreePv
	.loc 3 1551 25
	movq	-200(%rbp), %rdx
	movq	-192(%rbp), %rax
	movq	%rdx, %rsi
	movq	%rax, %rdi
	call	_ZL15memalignNoStatsmm
	.loc 3 1551 41
	nop
.L845:
	.loc 3 1552 2 discriminator 2
	movq	-8(%rbp), %rdx
	subq	%fs:40, %rdx
	je	.L846
	.loc 3 1552 2 is_stmt 0
	call	__stack_chk_fail@PLT
.L846:
	leave
	.cfi_def_cfa 7, 8
	ret
	.cfi_endproc
.LFE2898:
	.section	.gcc_except_table
.LLSDA2898:
	.byte	0xff
	.byte	0xff
	.byte	0x1
	.uleb128 .LLSDACSE2898-.LLSDACSB2898
.LLSDACSB2898:
.LLSDACSE2898:
	.text
	.size	_Z6resizePvmm, .-_Z6resizePvmm
	.globl	_Z7reallocPvmm
	.type	_Z7reallocPvmm, @function
_Z7reallocPvmm:
.LFB2899:
	.loc 3 1555 2 is_stmt 1
	.cfi_startproc
	.cfi_personality 0x9b,DW.ref.__gxx_personality_v0
	.cfi_lsda 0x1b,.LLSDA2899
	endbr64
	pushq	%rbp
	.cfi_def_cfa_offset 16
	.cfi_offset 6, -16
	movq	%rsp, %rbp
	.cfi_def_cfa_register 6
	subq	$304, %rsp
	movq	%rdi, -280(%rbp)
	movq	%rsi, -288(%rbp)
	movq	%rdx, -296(%rbp)
	.loc 3 1555 2
	movq	%fs:40, %rax
	movq	%rax, -8(%rbp)
	xorl	%eax, %eax
	.loc 3 1556 26
	cmpq	$0, -280(%rbp)
	sete	%al
	.loc 3 1556 24
	movzbl	%al, %eax
	.loc 3 1556 2
	testq	%rax, %rax
	je	.L859
	.loc 3 1557 25
	movq	-296(%rbp), %rdx
	movq	-288(%rbp), %rax
	movq	%rdx, %rsi
	movq	%rax, %rdi
	call	_ZL15memalignNoStatsmm
	.loc 3 1557 41
	jmp	.L929
.L859:
	.loc 3 1560 26
	movzbl	_ZN13uKernelModule23kernelModuleInitializedE(%rip), %eax
	xorl	$1, %eax
	.loc 3 1560 24
	movzbl	%al, %eax
	.loc 3 1560 2
	testq	%rax, %rax
	je	.L861
	.loc 3 1560 112 discriminator 1
	call	_ZN13uKernelModule7startupEv@PLT
	.loc 3 1560 134 discriminator 1
	call	_Z15heapManagerCtorv
.L861:
	.loc 3 1560 168 discriminator 3
	cmpq	$0, -296(%rbp)
	sete	%al
	.loc 3 1560 166 discriminator 3
	movzbl	%al, %eax
	.loc 3 1560 144 discriminator 3
	testq	%rax, %rax
	jne	.L862
	.loc 3 1560 214 discriminator 5
	cmpq	$-17, -296(%rbp)
	seta	%al
	.loc 3 1560 212 discriminator 5
	movzbl	%al, %eax
	.loc 3 1560 192 discriminator 5
	testq	%rax, %rax
	je	.L863
.L862:
	.loc 3 1560 52 discriminator 6
	movq	-280(%rbp), %rax
	movq	%rax, %rdi
	call	_ZL6doFreePv
	.loc 3 1560 71 discriminator 6
	movl	$0, %eax
	jmp	.L929
.L863:
	.loc 3 1563 41
	movq	-280(%rbp), %rax
	subq	$16, %rax
	.loc 3 1563 30
	movq	%rax, -248(%rbp)
	.loc 3 1564 56
	movq	-248(%rbp), %rax
	movq	(%rax), %rax
	.loc 3 1564 68
	andl	$1, %eax
	.loc 3 1564 7
	testq	%rax, %rax
	setne	%al
	movb	%al, -262(%rbp)
	.loc 3 1566 24
	movzbl	-262(%rbp), %eax
	.loc 3 1566 2
	testq	%rax, %rax
	je	.L864
	movq	-288(%rbp), %rax
	movq	%rax, -200(%rbp)
.LBB1203:
.LBB1204:
	.loc 3 642 42
	cmpq	$15, -200(%rbp)
	setbe	%al
	.loc 3 642 24
	movzbl	%al, %eax
	testq	%rax, %rax
	jne	.L865
	movq	-200(%rbp), %rax
	movq	%rax, -192(%rbp)
.LBB1205:
.LBB1206:
	.loc 4 40 27
	movq	-192(%rbp), %rax
	subq	$1, %rax
	.loc 4 40 17
	andq	-192(%rbp), %rax
	.loc 4 40 38
	testq	%rax, %rax
	sete	%al
.LBE1206:
.LBE1205:
	.loc 3 642 62
	xorl	$1, %eax
	.loc 3 642 24
	movzbl	%al, %eax
	testq	%rax, %rax
	je	.L867
.L865:
	movl	$1, %eax
	jmp	.L868
.L867:
	movl	$0, %eax
.L868:
	movzbl	%al, %eax
	testq	%rax, %rax
	setne	%al
	.loc 3 642 2
	testb	%al, %al
	je	.L940
	.loc 3 643 8
	movq	-200(%rbp), %rax
	movl	$16, %edx
	movq	%rax, %rsi
	leaq	.LC36(%rip), %rax
	movq	%rax, %rdi
	movl	$0, %eax
	call	_Z5abortPKcz@PLT
.L940:
	.loc 3 645 2
	nop
.LBE1204:
.LBE1203:
	.loc 3 1568 43
	movq	-248(%rbp), %rax
	movq	(%rax), %rax
	.loc 3 1568 55
	andq	$-2, %rax
	.loc 3 1568 9
	movq	%rax, -240(%rbp)
	.loc 3 1569 52
	movq	-280(%rbp), %rax
	movl	$0, %edx
	divq	-288(%rbp)
	movq	%rdx, %rax
	.loc 3 1569 61
	testq	%rax, %rax
	sete	%al
	.loc 3 1569 24
	movzbl	%al, %eax
	testq	%rax, %rax
	je	.L870
	.loc 3 1569 78 discriminator 1
	movq	-240(%rbp), %rax
	cmpq	%rax, -288(%rbp)
	setnb	%al
	.loc 3 1569 24 discriminator 1
	movzbl	%al, %eax
	testq	%rax, %rax
	jne	.L871
	.loc 3 1569 100 discriminator 4
	movq	-240(%rbp), %rax
	cmpq	%rax, -288(%rbp)
	setbe	%al
	.loc 3 1569 24 discriminator 4
	movzbl	%al, %eax
	testq	%rax, %rax
	je	.L872
	.loc 3 1569 120 discriminator 5
	movq	-240(%rbp), %rax
	cmpq	$256, %rax
	setbe	%al
	.loc 3 1569 24 discriminator 5
	movzbl	%al, %eax
	testq	%rax, %rax
	je	.L872
	.loc 3 1569 24 is_stmt 0 discriminator 7
	movl	$1, %eax
	jmp	.L873
.L872:
	.loc 3 1569 24 discriminator 8
	movl	$0, %eax
.L873:
	.loc 3 1569 24 discriminator 10
	testb	%al, %al
	je	.L874
.L871:
	.loc 3 1569 24 discriminator 11
	movl	$1, %eax
	jmp	.L875
.L874:
	.loc 3 1569 24 discriminator 12
	movl	$0, %eax
.L875:
	.loc 3 1569 24 discriminator 14
	testb	%al, %al
	je	.L870
	.loc 3 1569 24 discriminator 15
	movl	$1, %eax
	jmp	.L876
.L870:
	.loc 3 1569 24 discriminator 16
	movl	$0, %eax
.L876:
	.loc 3 1569 24 discriminator 18
	movzbl	%al, %eax
	.loc 3 1569 2 is_stmt 1 discriminator 18
	testq	%rax, %rax
	je	.L877
	.loc 3 1573 4
	movq	-280(%rbp), %rax
	subq	$16, %rax
	.loc 3 1573 130
	movq	-288(%rbp), %rdx
	orq	$1, %rdx
	.loc 3 1573 115
	movq	%rdx, (%rax)
	.loc 3 1574 17
	movq	-296(%rbp), %rdx
	movq	-280(%rbp), %rax
	movq	%rdx, %rsi
	movq	%rax, %rdi
	call	realloc
	.loc 3 1574 32
	jmp	.L929
.L864:
	.loc 3 1576 14
	movzbl	-262(%rbp), %eax
	xorl	$1, %eax
	.loc 3 1576 9
	testb	%al, %al
	je	.L877
	.loc 3 1577 2
	cmpq	$16, -288(%rbp)
	jne	.L877
	.loc 3 1578 17
	movq	-296(%rbp), %rdx
	movq	-280(%rbp), %rax
	movq	%rdx, %rsi
	movq	%rax, %rdi
	call	realloc
	.loc 3 1578 32
	jmp	.L929
.L877:
	leaq	.LC45(%rip), %rax
	movq	%rax, -96(%rbp)
	movq	-280(%rbp), %rax
	movq	%rax, -88(%rbp)
.LBB1207:
.LBB1208:
	.loc 3 689 13
	movq	-88(%rbp), %rax
	subq	$16, %rax
	.loc 3 689 9
	movq	%rax, -248(%rbp)
	.loc 3 691 16
	movq	-248(%rbp), %rdx
	.loc 3 691 38
	movq	8+_ZL10heapMaster(%rip), %rax
	.loc 3 691 14
	cmpq	%rax, %rdx
	setb	%al
	movzbl	%al, %eax
	movb	%al, -258(%rbp)
	andb	$1, -258(%rbp)
	movq	-96(%rbp), %rax
	movq	%rax, -80(%rbp)
	movq	-88(%rbp), %rax
	movq	%rax, -72(%rbp)
.LBB1209:
.LBB1210:
	.loc 3 650 24
	movzbl	-258(%rbp), %eax
	.loc 3 650 2
	testq	%rax, %rax
	je	.L941
	.loc 3 651 8
	movq	-72(%rbp), %rdx
	movq	-80(%rbp), %rax
	movq	%rax, %rsi
	leaq	.LC35(%rip), %rax
	movq	%rax, %rdi
	movl	$0, %eax
	call	_Z5abortPKcz@PLT
.L941:
	.loc 3 655 2
	nop
.LBE1210:
.LBE1209:
.LBB1211:
	.loc 3 693 40
	movq	-248(%rbp), %rax
	.loc 3 693 66
	movq	(%rax), %rax
	.loc 3 693 76
	andl	$7, %eax
	.loc 3 693 26
	testq	%rax, %rax
	sete	%al
	.loc 3 693 24
	movzbl	%al, %eax
	.loc 3 693 2
	testq	%rax, %rax
	je	.L879
	.loc 3 694 13
	movq	-248(%rbp), %rax
	.loc 3 694 37
	movq	(%rax), %rax
	.loc 3 694 11
	movq	%rax, -232(%rbp)
	.loc 3 695 12
	movq	$16, -240(%rbp)
	jmp	.L880
.L879:
	leaq	-248(%rbp), %rax
	movq	%rax, -64(%rbp)
	leaq	-240(%rbp), %rax
	movq	%rax, -56(%rbp)
.LBB1212:
.LBB1213:
.LBB1214:
	.loc 3 676 40
	movq	-64(%rbp), %rax
	movq	(%rax), %rax
	.loc 3 676 66
	movq	(%rax), %rax
	.loc 3 676 78
	andl	$1, %eax
	.loc 3 676 26
	testq	%rax, %rax
	setne	%al
	.loc 3 676 24
	movzbl	%al, %eax
	.loc 3 676 2
	testq	%rax, %rax
	je	.L881
	.loc 3 677 20
	movq	-64(%rbp), %rax
	movq	(%rax), %rax
	.loc 3 677 46
	movq	(%rax), %rax
	.loc 3 677 58
	andq	$-2, %rax
	movq	%rax, %rdx
	.loc 3 677 12
	movq	-56(%rbp), %rax
	movq	%rdx, (%rax)
	.loc 3 678 13
	movq	-56(%rbp), %rax
	movq	(%rax), %rax
	movq	%rax, -48(%rbp)
.LBB1215:
.LBB1216:
	.loc 3 642 42
	cmpq	$15, -48(%rbp)
	setbe	%al
	.loc 3 642 24
	movzbl	%al, %eax
	testq	%rax, %rax
	jne	.L882
	movq	-48(%rbp), %rax
	movq	%rax, -40(%rbp)
.LBB1217:
.LBB1218:
	.loc 4 40 27
	movq	-40(%rbp), %rax
	subq	$1, %rax
	.loc 4 40 17
	andq	-40(%rbp), %rax
	.loc 4 40 38
	testq	%rax, %rax
	sete	%al
.LBE1218:
.LBE1217:
	.loc 3 642 62
	xorl	$1, %eax
	.loc 3 642 24
	movzbl	%al, %eax
	testq	%rax, %rax
	je	.L884
.L882:
	movl	$1, %eax
	jmp	.L885
.L884:
	movl	$0, %eax
.L885:
	movzbl	%al, %eax
	testq	%rax, %rax
	setne	%al
	.loc 3 642 2
	testb	%al, %al
	je	.L942
	.loc 3 643 8
	movq	-48(%rbp), %rax
	movl	$16, %edx
	movq	%rax, %rsi
	leaq	.LC36(%rip), %rax
	movq	%rax, %rdi
	movl	$0, %eax
	call	_Z5abortPKcz@PLT
.L942:
	.loc 3 645 2
	nop
.LBE1216:
.LBE1215:
	.loc 3 679 58
	movq	-64(%rbp), %rax
	movq	(%rax), %rdx
	.loc 3 679 67
	movq	-64(%rbp), %rax
	movq	(%rax), %rax
	.loc 3 679 91
	movq	8(%rax), %rax
	.loc 3 679 65
	negq	%rax
	.loc 3 679 13
	addq	%rax, %rdx
	.loc 3 679 9
	movq	-64(%rbp), %rax
	movq	%rdx, (%rax)
	.loc 3 683 2
	jmp	.L943
.L881:
	.loc 3 681 12
	movq	-56(%rbp), %rax
	movq	$16, (%rax)
.L943:
	.loc 3 683 2
	nop
.LBE1214:
.LBE1213:
.LBB1219:
	.loc 3 698 40
	movq	-248(%rbp), %rax
	.loc 3 698 66
	movq	(%rax), %rax
	.loc 3 698 78
	andl	$4, %eax
	.loc 3 698 26
	testq	%rax, %rax
	setne	%al
	.loc 3 698 24
	movzbl	%al, %eax
	.loc 3 698 2
	testq	%rax, %rax
	je	.L888
.LBB1220:
.LBB1221:
	.loc 3 699 22
	movq	8+_ZL10heapMaster(%rip), %rax
	.loc 3 699 2
	cmpq	%rax, -88(%rbp)
	jb	.L889
	.loc 3 699 48
	movq	16+_ZL10heapMaster(%rip), %rax
	.loc 3 699 7
	cmpq	%rax, -88(%rbp)
	ja	.L889
.LBB1222:
	.loc 3 699 70
	movl	$137, %edx
	leaq	.LC37(%rip), %rax
	movq	%rax, %rsi
	movl	$2, %edi
	call	write@PLT
	.loc 3 699 59
	movl	%eax, -252(%rbp)
	.loc 3 699 419
	call	abort@PLT
.L889:
.LBE1222:
.LBE1221:
	.loc 3 700 78
	movq	-248(%rbp), %rax
	.loc 3 700 102
	movq	(%rax), %rax
	.loc 3 700 114
	andq	$-8, %rax
	.loc 3 700 7
	movq	%rax, -224(%rbp)
	.loc 3 701 9
	jmp	.L890
.L888:
.LBE1220:
.LBE1219:
	.loc 3 704 77
	movq	-248(%rbp), %rax
	.loc 3 704 101
	movq	(%rax), %rax
	.loc 3 704 108
	andq	$-8, %rax
	.loc 3 704 11
	movq	%rax, -232(%rbp)
.L880:
.LBE1212:
.LBE1211:
	.loc 3 706 9
	movq	-232(%rbp), %rax
	.loc 3 706 21
	movq	32(%rax), %rax
	.loc 3 706 7
	movq	%rax, -224(%rbp)
	.loc 3 709 16
	movq	-248(%rbp), %rdx
	.loc 3 709 38
	movq	8+_ZL10heapMaster(%rip), %rax
	.loc 3 709 48
	cmpq	%rax, %rdx
	jb	.L891
	.loc 3 709 64
	movq	16+_ZL10heapMaster(%rip), %rdx
	.loc 3 709 74
	movq	-248(%rbp), %rax
	.loc 3 709 48
	cmpq	%rax, %rdx
	jnb	.L892
.L891:
	movl	$1, %eax
	jmp	.L893
.L892:
	movl	$0, %eax
.L893:
	.loc 3 709 14
	movzbl	%al, %eax
	movb	%al, -257(%rbp)
	andb	$1, -257(%rbp)
	movq	-96(%rbp), %rax
	movq	%rax, -32(%rbp)
	movq	-88(%rbp), %rax
	movq	%rax, -24(%rbp)
.LBB1223:
.LBB1224:
	.loc 3 650 24
	movzbl	-257(%rbp), %eax
	.loc 3 650 2
	testq	%rax, %rax
	je	.L944
	.loc 3 651 8
	movq	-24(%rbp), %rdx
	movq	-32(%rbp), %rax
	movq	%rax, %rsi
	leaq	.LC35(%rip), %rax
	movq	%rax, %rdi
	movl	$0, %eax
	call	_Z5abortPKcz@PLT
.L944:
	.loc 3 655 2
	nop
.LBE1224:
.LBE1223:
	.loc 3 712 32
	movq	-232(%rbp), %rax
	.loc 3 712 41
	testq	%rax, %rax
	sete	%al
	.loc 3 712 24
	movzbl	%al, %eax
	testq	%rax, %rax
	jne	.L895
	.loc 3 712 71
	movq	-232(%rbp), %rax
	.loc 3 712 69
	movq	24(%rax), %rax
	movq	%rax, -16(%rbp)
	.loc 3 712 97
	movq	-232(%rbp), %rdx
	.loc 3 712 108
	movq	-16(%rbp), %rax
	.loc 3 712 141
	cmpq	%rax, %rdx
	jb	.L896
	.loc 3 712 144
	movq	-16(%rbp), %rax
	leaq	3640(%rax), %rdx
	.loc 3 712 200
	movq	-232(%rbp), %rax
	.loc 3 712 141
	cmpq	%rax, %rdx
	ja	.L897
.L896:
	movl	$1, %eax
	jmp	.L898
.L897:
	movl	$0, %eax
.L898:
	.loc 3 712 24
	movzbl	%al, %eax
	testq	%rax, %rax
	je	.L899
.L895:
	movl	$1, %eax
	jmp	.L900
.L899:
	movl	$0, %eax
.L900:
	movzbl	%al, %eax
	testq	%rax, %rax
	setne	%al
	.loc 3 712 2
	testb	%al, %al
	je	.L945
	.loc 3 716 8
	movq	-88(%rbp), %rdx
	movq	-96(%rbp), %rax
	movq	%rax, %rsi
	leaq	.LC38(%rip), %rax
	movq	%rax, %rdi
	movl	$0, %eax
	call	_Z5abortPKcz@PLT
.L945:
	.loc 3 722 9
	nop
.L890:
.LBE1208:
.LBE1207:
	.loc 3 1587 41
	movq	-248(%rbp), %rax
	.loc 3 1587 9
	movq	8(%rax), %rax
	movq	%rax, -216(%rbp)
	.loc 3 1588 50
	movq	-248(%rbp), %rax
	movq	(%rax), %rax
	.loc 3 1588 62
	andl	$2, %eax
	.loc 3 1588 7
	testq	%rax, %rax
	setne	%al
	movb	%al, -261(%rbp)
	.loc 3 1590 33
	movq	-296(%rbp), %rdx
	movq	-288(%rbp), %rax
	movq	%rdx, %rsi
	movq	%rax, %rdi
	call	_ZL15memalignNoStatsmm
	movq	%rax, -208(%rbp)
	leaq	.LC45(%rip), %rax
	movq	%rax, -184(%rbp)
	movq	-208(%rbp), %rax
	movq	%rax, -176(%rbp)
.LBB1225:
.LBB1226:
	.loc 3 689 13
	movq	-176(%rbp), %rax
	subq	$16, %rax
	.loc 3 689 9
	movq	%rax, -248(%rbp)
	.loc 3 691 16
	movq	-248(%rbp), %rdx
	.loc 3 691 38
	movq	8+_ZL10heapMaster(%rip), %rax
	.loc 3 691 14
	cmpq	%rax, %rdx
	setb	%al
	movzbl	%al, %eax
	movb	%al, -260(%rbp)
	andb	$1, -260(%rbp)
	movq	-184(%rbp), %rax
	movq	%rax, -168(%rbp)
	movq	-176(%rbp), %rax
	movq	%rax, -160(%rbp)
.LBB1227:
.LBB1228:
	.loc 3 650 24
	movzbl	-260(%rbp), %eax
	.loc 3 650 2
	testq	%rax, %rax
	je	.L946
	.loc 3 651 8
	movq	-160(%rbp), %rdx
	movq	-168(%rbp), %rax
	movq	%rax, %rsi
	leaq	.LC35(%rip), %rax
	movq	%rax, %rdi
	movl	$0, %eax
	call	_Z5abortPKcz@PLT
.L946:
	.loc 3 655 2
	nop
.LBE1228:
.LBE1227:
.LBB1229:
	.loc 3 693 40
	movq	-248(%rbp), %rax
	.loc 3 693 66
	movq	(%rax), %rax
	.loc 3 693 76
	andl	$7, %eax
	.loc 3 693 26
	testq	%rax, %rax
	sete	%al
	.loc 3 693 24
	movzbl	%al, %eax
	.loc 3 693 2
	testq	%rax, %rax
	je	.L903
	.loc 3 694 13
	movq	-248(%rbp), %rax
	.loc 3 694 37
	movq	(%rax), %rax
	.loc 3 694 11
	movq	%rax, -232(%rbp)
	.loc 3 695 12
	movq	$16, -240(%rbp)
	jmp	.L904
.L903:
	leaq	-248(%rbp), %rax
	movq	%rax, -152(%rbp)
	leaq	-240(%rbp), %rax
	movq	%rax, -144(%rbp)
.LBB1230:
.LBB1231:
.LBB1232:
	.loc 3 676 40
	movq	-152(%rbp), %rax
	movq	(%rax), %rax
	.loc 3 676 66
	movq	(%rax), %rax
	.loc 3 676 78
	andl	$1, %eax
	.loc 3 676 26
	testq	%rax, %rax
	setne	%al
	.loc 3 676 24
	movzbl	%al, %eax
	.loc 3 676 2
	testq	%rax, %rax
	je	.L905
	.loc 3 677 20
	movq	-152(%rbp), %rax
	movq	(%rax), %rax
	.loc 3 677 46
	movq	(%rax), %rax
	.loc 3 677 58
	andq	$-2, %rax
	movq	%rax, %rdx
	.loc 3 677 12
	movq	-144(%rbp), %rax
	movq	%rdx, (%rax)
	.loc 3 678 13
	movq	-144(%rbp), %rax
	movq	(%rax), %rax
	movq	%rax, -136(%rbp)
.LBB1233:
.LBB1234:
	.loc 3 642 42
	cmpq	$15, -136(%rbp)
	setbe	%al
	.loc 3 642 24
	movzbl	%al, %eax
	testq	%rax, %rax
	jne	.L906
	movq	-136(%rbp), %rax
	movq	%rax, -128(%rbp)
.LBB1235:
.LBB1236:
	.loc 4 40 27
	movq	-128(%rbp), %rax
	subq	$1, %rax
	.loc 4 40 17
	andq	-128(%rbp), %rax
	.loc 4 40 38
	testq	%rax, %rax
	sete	%al
.LBE1236:
.LBE1235:
	.loc 3 642 62
	xorl	$1, %eax
	.loc 3 642 24
	movzbl	%al, %eax
	testq	%rax, %rax
	je	.L908
.L906:
	movl	$1, %eax
	jmp	.L909
.L908:
	movl	$0, %eax
.L909:
	movzbl	%al, %eax
	testq	%rax, %rax
	setne	%al
	.loc 3 642 2
	testb	%al, %al
	je	.L947
	.loc 3 643 8
	movq	-136(%rbp), %rax
	movl	$16, %edx
	movq	%rax, %rsi
	leaq	.LC36(%rip), %rax
	movq	%rax, %rdi
	movl	$0, %eax
	call	_Z5abortPKcz@PLT
.L947:
	.loc 3 645 2
	nop
.LBE1234:
.LBE1233:
	.loc 3 679 58
	movq	-152(%rbp), %rax
	movq	(%rax), %rdx
	.loc 3 679 67
	movq	-152(%rbp), %rax
	movq	(%rax), %rax
	.loc 3 679 91
	movq	8(%rax), %rax
	.loc 3 679 65
	negq	%rax
	.loc 3 679 13
	addq	%rax, %rdx
	.loc 3 679 9
	movq	-152(%rbp), %rax
	movq	%rdx, (%rax)
	.loc 3 683 2
	jmp	.L948
.L905:
	.loc 3 681 12
	movq	-144(%rbp), %rax
	movq	$16, (%rax)
.L948:
	.loc 3 683 2
	nop
.LBE1232:
.LBE1231:
.LBB1237:
	.loc 3 698 40
	movq	-248(%rbp), %rax
	.loc 3 698 66
	movq	(%rax), %rax
	.loc 3 698 78
	andl	$4, %eax
	.loc 3 698 26
	testq	%rax, %rax
	setne	%al
	.loc 3 698 24
	movzbl	%al, %eax
	.loc 3 698 2
	testq	%rax, %rax
	je	.L912
.LBB1238:
.LBB1239:
	.loc 3 699 22
	movq	8+_ZL10heapMaster(%rip), %rax
	.loc 3 699 2
	cmpq	%rax, -176(%rbp)
	jb	.L913
	.loc 3 699 48
	movq	16+_ZL10heapMaster(%rip), %rax
	.loc 3 699 7
	cmpq	%rax, -176(%rbp)
	ja	.L913
.LBB1240:
	.loc 3 699 70
	movl	$137, %edx
	leaq	.LC37(%rip), %rax
	movq	%rax, %rsi
	movl	$2, %edi
	call	write@PLT
	.loc 3 699 59
	movl	%eax, -256(%rbp)
	.loc 3 699 419
	call	abort@PLT
.L913:
.LBE1240:
.LBE1239:
	.loc 3 700 78
	movq	-248(%rbp), %rax
	.loc 3 700 102
	movq	(%rax), %rax
	.loc 3 700 114
	andq	$-8, %rax
	.loc 3 700 7
	movq	%rax, -224(%rbp)
	.loc 3 701 9
	jmp	.L914
.L912:
.LBE1238:
.LBE1237:
	.loc 3 704 77
	movq	-248(%rbp), %rax
	.loc 3 704 101
	movq	(%rax), %rax
	.loc 3 704 108
	andq	$-8, %rax
	.loc 3 704 11
	movq	%rax, -232(%rbp)
.L904:
.LBE1230:
.LBE1229:
	.loc 3 706 9
	movq	-232(%rbp), %rax
	.loc 3 706 21
	movq	32(%rax), %rax
	.loc 3 706 7
	movq	%rax, -224(%rbp)
	.loc 3 709 16
	movq	-248(%rbp), %rdx
	.loc 3 709 38
	movq	8+_ZL10heapMaster(%rip), %rax
	.loc 3 709 48
	cmpq	%rax, %rdx
	jb	.L915
	.loc 3 709 64
	movq	16+_ZL10heapMaster(%rip), %rdx
	.loc 3 709 74
	movq	-248(%rbp), %rax
	.loc 3 709 48
	cmpq	%rax, %rdx
	jnb	.L916
.L915:
	movl	$1, %eax
	jmp	.L917
.L916:
	movl	$0, %eax
.L917:
	.loc 3 709 14
	movzbl	%al, %eax
	movb	%al, -259(%rbp)
	andb	$1, -259(%rbp)
	movq	-184(%rbp), %rax
	movq	%rax, -120(%rbp)
	movq	-176(%rbp), %rax
	movq	%rax, -112(%rbp)
.LBB1241:
.LBB1242:
	.loc 3 650 24
	movzbl	-259(%rbp), %eax
	.loc 3 650 2
	testq	%rax, %rax
	je	.L949
	.loc 3 651 8
	movq	-112(%rbp), %rdx
	movq	-120(%rbp), %rax
	movq	%rax, %rsi
	leaq	.LC35(%rip), %rax
	movq	%rax, %rdi
	movl	$0, %eax
	call	_Z5abortPKcz@PLT
.L949:
	.loc 3 655 2
	nop
.LBE1242:
.LBE1241:
	.loc 3 712 32
	movq	-232(%rbp), %rax
	.loc 3 712 41
	testq	%rax, %rax
	sete	%al
	.loc 3 712 24
	movzbl	%al, %eax
	testq	%rax, %rax
	jne	.L919
	.loc 3 712 71
	movq	-232(%rbp), %rax
	.loc 3 712 69
	movq	24(%rax), %rax
	movq	%rax, -104(%rbp)
	.loc 3 712 97
	movq	-232(%rbp), %rdx
	.loc 3 712 108
	movq	-104(%rbp), %rax
	.loc 3 712 141
	cmpq	%rax, %rdx
	jb	.L920
	.loc 3 712 144
	movq	-104(%rbp), %rax
	leaq	3640(%rax), %rdx
	.loc 3 712 200
	movq	-232(%rbp), %rax
	.loc 3 712 141
	cmpq	%rax, %rdx
	ja	.L921
.L920:
	movl	$1, %eax
	jmp	.L922
.L921:
	movl	$0, %eax
.L922:
	.loc 3 712 24
	movzbl	%al, %eax
	testq	%rax, %rax
	je	.L923
.L919:
	movl	$1, %eax
	jmp	.L924
.L923:
	movl	$0, %eax
.L924:
	movzbl	%al, %eax
	testq	%rax, %rax
	setne	%al
	.loc 3 712 2
	testb	%al, %al
	je	.L950
	.loc 3 716 8
	movq	-176(%rbp), %rdx
	movq	-184(%rbp), %rax
	movq	%rax, %rsi
	leaq	.LC38(%rip), %rax
	movq	%rax, %rdi
	movl	$0, %eax
	call	_Z5abortPKcz@PLT
.L950:
	.loc 3 722 9
	nop
.L914:
.LBE1226:
.LBE1225:
	.loc 3 1593 9
	movq	-216(%rbp), %rax
	cmpq	-296(%rbp), %rax
	jnb	.L926
	.loc 3 1593 9 is_stmt 0 discriminator 1
	movq	-216(%rbp), %rax
	jmp	.L927
.L926:
	.loc 3 1593 9 discriminator 2
	movq	-296(%rbp), %rax
.L927:
	.loc 3 1593 9 discriminator 4
	movq	-280(%rbp), %rsi
	movq	-208(%rbp), %rcx
	movq	%rax, %rdx
	movq	%rcx, %rdi
	call	memcpy@PLT
	.loc 3 1594 9 is_stmt 1 discriminator 4
	movq	-280(%rbp), %rax
	movq	%rax, %rdi
	call	_ZL6doFreePv
	.loc 3 1596 24 discriminator 4
	movzbl	-261(%rbp), %eax
	.loc 3 1596 2 discriminator 4
	testq	%rax, %rax
	je	.L928
	.loc 3 1597 42
	movq	-248(%rbp), %rax
	movq	(%rax), %rdx
	movq	-248(%rbp), %rax
	orq	$2, %rdx
	movq	%rdx, (%rax)
	.loc 3 1598 2
	movq	-296(%rbp), %rax
	cmpq	-216(%rbp), %rax
	jbe	.L928
	.loc 3 1599 9
	movq	-296(%rbp), %rax
	subq	-216(%rbp), %rax
	movq	-208(%rbp), %rcx
	movq	-216(%rbp), %rdx
	addq	%rdx, %rcx
	movq	%rax, %rdx
	movl	$0, %esi
	movq	%rcx, %rdi
	call	memset@PLT
.L928:
	.loc 3 1602 9
	movq	-208(%rbp), %rax
.L929:
	.loc 3 1603 2 discriminator 1
	movq	-8(%rbp), %rdx
	subq	%fs:40, %rdx
	je	.L930
	.loc 3 1603 2 is_stmt 0
	call	__stack_chk_fail@PLT
.L930:
	leave
	.cfi_def_cfa 7, 8
	ret
	.cfi_endproc
.LFE2899:
	.section	.gcc_except_table
.LLSDA2899:
	.byte	0xff
	.byte	0xff
	.byte	0x1
	.uleb128 .LLSDACSE2899-.LLSDACSB2899
.LLSDACSB2899:
.LLSDACSE2899:
	.text
	.size	_Z7reallocPvmm, .-_Z7reallocPvmm
	.globl	_Z12reallocarrayPvmmm
	.type	_Z12reallocarrayPvmmm, @function
_Z12reallocarrayPvmmm:
.LFB2900:
	.loc 3 1606 2 is_stmt 1
	.cfi_startproc
	endbr64
	pushq	%rbp
	.cfi_def_cfa_offset 16
	.cfi_offset 6, -16
	movq	%rsp, %rbp
	.cfi_def_cfa_register 6
	subq	$32, %rsp
	movq	%rdi, -8(%rbp)
	movq	%rsi, -16(%rbp)
	movq	%rdx, -24(%rbp)
	movq	%rcx, -32(%rbp)
	.loc 3 1607 17
	movq	-24(%rbp), %rax
	imulq	-32(%rbp), %rax
	movq	%rax, %rdx
	movq	-16(%rbp), %rcx
	movq	-8(%rbp), %rax
	movq	%rcx, %rsi
	movq	%rax, %rdi
	call	_Z7reallocPvmm
	.loc 3 1608 2
	leave
	.cfi_def_cfa 7, 8
	ret
	.cfi_endproc
.LFE2900:
	.size	_Z12reallocarrayPvmmm, .-_Z12reallocarrayPvmmm
	.section	.text._ZN7uNoCtorI9uSpinLockLb0EE4ctorEv,"axG",@progbits,_ZN7uNoCtorI9uSpinLockLb0EE4ctorEv,comdat
	.align 2
	.weak	_ZN7uNoCtorI9uSpinLockLb0EE4ctorEv
	.type	_ZN7uNoCtorI9uSpinLockLb0EE4ctorEv, @function
_ZN7uNoCtorI9uSpinLockLb0EE4ctorEv:
.LFB2945:
	.loc 2 129 7
	.cfi_startproc
	endbr64
	pushq	%rbp
	.cfi_def_cfa_offset 16
	.cfi_offset 6, -16
	movq	%rsp, %rbp
	.cfi_def_cfa_register 6
	subq	$16, %rsp
	movq	%rdi, -8(%rbp)
	.loc 2 129 18
	movq	-8(%rbp), %rax
	movq	%rax, %rsi
	movl	$4, %edi
	call	_ZnwmPv
	movq	%rax, %rdi
	call	_ZN9uSpinLockC1Ev
	.loc 2 129 40
	nop
	leave
	.cfi_def_cfa 7, 8
	ret
	.cfi_endproc
.LFE2945:
	.size	_ZN7uNoCtorI9uSpinLockLb0EE4ctorEv, .-_ZN7uNoCtorI9uSpinLockLb0EE4ctorEv
	.text
	.align 2
	.type	_ZN12_GLOBAL__N_110HeapMasterD2Ev, @function
_ZN12_GLOBAL__N_110HeapMasterD2Ev:
.LFB2988:
	.loc 3 211 9
	.cfi_startproc
	endbr64
	pushq	%rbp
	.cfi_def_cfa_offset 16
	.cfi_offset 6, -16
	movq	%rsp, %rbp
	.cfi_def_cfa_register 6
	subq	$16, %rsp
	movq	%rdi, -8(%rbp)
.LBB1243:
	.loc 3 211 9
	movq	-8(%rbp), %rax
	addq	$4, %rax
	movq	%rax, %rdi
	call	_ZN7uNoCtorI9uSpinLockLb0EED1Ev
	movq	-8(%rbp), %rax
	movq	%rax, %rdi
	call	_ZN7uNoCtorI9uSpinLockLb0EED1Ev
.LBE1243:
	nop
	leave
	.cfi_def_cfa 7, 8
	ret
	.cfi_endproc
.LFE2988:
	.size	_ZN12_GLOBAL__N_110HeapMasterD2Ev, .-_ZN12_GLOBAL__N_110HeapMasterD2Ev
	.set	_ZN12_GLOBAL__N_110HeapMasterD1Ev,_ZN12_GLOBAL__N_110HeapMasterD2Ev
	.type	_Z41__static_initialization_and_destruction_0ii, @function
_Z41__static_initialization_and_destruction_0ii:
.LFB2986:
	.loc 3 1608 2
	.cfi_startproc
	endbr64
	pushq	%rbp
	.cfi_def_cfa_offset 16
	.cfi_offset 6, -16
	movq	%rsp, %rbp
	.cfi_def_cfa_register 6
	subq	$16, %rsp
	movl	%edi, -4(%rbp)
	movl	%esi, -8(%rbp)
	.loc 3 1608 2
	cmpl	$1, -4(%rbp)
	jne	.L957
	.loc 3 1608 2 is_stmt 0 discriminator 1
	cmpl	$65535, -8(%rbp)
	jne	.L957
	.loc 3 252 20 is_stmt 1
	leaq	__dso_handle(%rip), %rax
	movq	%rax, %rdx
	leaq	_ZL10heapMaster(%rip), %rax
	movq	%rax, %rsi
	leaq	_ZN12_GLOBAL__N_110HeapMasterD1Ev(%rip), %rax
	movq	%rax, %rdi
	call	__cxa_atexit@PLT
.L957:
	.loc 3 1608 2
	nop
	leave
	.cfi_def_cfa 7, 8
	ret
	.cfi_endproc
.LFE2986:
	.size	_Z41__static_initialization_and_destruction_0ii, .-_Z41__static_initialization_and_destruction_0ii
	.section	.text._ZN7uNoCtorI9uSpinLockLb0EED2Ev,"axG",@progbits,_ZN7uNoCtorI9uSpinLockLb0EED5Ev,comdat
	.align 2
	.weak	_ZN7uNoCtorI9uSpinLockLb0EED2Ev
	.type	_ZN7uNoCtorI9uSpinLockLb0EED2Ev, @function
_ZN7uNoCtorI9uSpinLockLb0EED2Ev:
.LFB2991:
	.loc 2 132 2
	.cfi_startproc
	endbr64
	pushq	%rbp
	.cfi_def_cfa_offset 16
	.cfi_offset 6, -16
	movq	%rsp, %rbp
	.cfi_def_cfa_register 6
	movq	%rdi, -8(%rbp)
	.loc 2 132 44
	nop
	popq	%rbp
	.cfi_def_cfa 7, 8
	ret
	.cfi_endproc
.LFE2991:
	.size	_ZN7uNoCtorI9uSpinLockLb0EED2Ev, .-_ZN7uNoCtorI9uSpinLockLb0EED2Ev
	.weak	_ZN7uNoCtorI9uSpinLockLb0EED1Ev
	.set	_ZN7uNoCtorI9uSpinLockLb0EED1Ev,_ZN7uNoCtorI9uSpinLockLb0EED2Ev
	.text
	.type	_GLOBAL__sub_I__Z15heapManagerCtorv, @function
_GLOBAL__sub_I__Z15heapManagerCtorv:
.LFB2994:
	.loc 3 1608 2
	.cfi_startproc
	endbr64
	pushq	%rbp
	.cfi_def_cfa_offset 16
	.cfi_offset 6, -16
	movq	%rsp, %rbp
	.cfi_def_cfa_register 6
	.loc 3 1608 2
	movl	$65535, %esi
	movl	$1, %edi
	call	_Z41__static_initialization_and_destruction_0ii
	popq	%rbp
	.cfi_def_cfa 7, 8
	ret
	.cfi_endproc
.LFE2994:
	.size	_GLOBAL__sub_I__Z15heapManagerCtorv, .-_GLOBAL__sub_I__Z15heapManagerCtorv
	.section	.init_array,"aw"
	.align 8
	.quad	_GLOBAL__sub_I__Z15heapManagerCtorv
	.text
.Letext0:
	.file 6 "/usr/include/x86_64-linux-gnu/bits/types.h"
	.file 7 "/usr/include/x86_64-linux-gnu/sys/types.h"
	.file 8 "/usr/include/x86_64-linux-gnu/bits/types/clock_t.h"
	.file 9 "/usr/include/x86_64-linux-gnu/bits/types/time_t.h"
	.file 10 "/usr/lib/gcc/x86_64-linux-gnu/11/include/stddef.h"
	.file 11 "/usr/include/x86_64-linux-gnu/bits/stdint-intn.h"
	.file 12 "/usr/include/x86_64-linux-gnu/bits/types/__sigset_t.h"
	.file 13 "/usr/include/x86_64-linux-gnu/bits/types/sigset_t.h"
	.file 14 "/usr/include/x86_64-linux-gnu/bits/types/struct_timeval.h"
	.file 15 "/usr/include/x86_64-linux-gnu/bits/types/struct_timespec.h"
	.file 16 "/usr/include/c++/11/cstddef"
	.file 17 "/usr/include/c++/11/cstdlib"
	.file 18 "/usr/include/c++/11/csignal"
	.file 19 "/usr/include/c++/11/bits/exception_ptr.h"
	.file 20 "/usr/include/x86_64-linux-gnu/c++/11/bits/c++config.h"
	.file 21 "/usr/include/c++/11/type_traits"
	.file 22 "/usr/include/c++/11/cwchar"
	.file 23 "/usr/include/c++/11/bits/std_abs.h"
	.file 24 "/usr/include/c++/11/cstring"
	.file 25 "/usr/include/c++/11/cstdint"
	.file 26 "/usr/include/c++/11/iosfwd"
	.file 27 "/usr/include/c++/11/debug/debug.h"
	.file 28 "/usr/include/c++/11/bits/stl_iterator.h"
	.file 29 "/usr/include/c++/11/bits/algorithmfwd.h"
	.file 30 "/usr/include/c++/11/functional"
	.file 31 "/usr/include/c++/11/ctime"
	.file 32 "/usr/include/c++/11/cstdarg"
	.file 33 "/usr/include/c++/11/bits/predefined_ops.h"
	.file 34 "/usr/include/stdlib.h"
	.file 35 "/usr/lib/gcc/x86_64-linux-gnu/11/include/stdarg.h"
	.file 36 "<built-in>"
	.file 37 "/usr/include/x86_64-linux-gnu/bits/types/__mbstate_t.h"
	.file 38 "/usr/include/x86_64-linux-gnu/bits/types/__FILE.h"
	.file 39 "/usr/include/x86_64-linux-gnu/bits/types/struct_FILE.h"
	.file 40 "/usr/include/x86_64-linux-gnu/bits/types/FILE.h"
	.file 41 "/usr/include/stdio.h"
	.file 42 "/usr/include/x86_64-linux-gnu/bits/stdint-uintn.h"
	.file 43 "/usr/include/stdint.h"
	.file 44 "/usr/include/x86_64-linux-gnu/bits/types/sig_atomic_t.h"
	.file 45 "/usr/include/x86_64-linux-gnu/bits/types/__sigval_t.h"
	.file 46 "/usr/include/x86_64-linux-gnu/bits/types/siginfo_t.h"
	.file 47 "/usr/include/signal.h"
	.file 48 "/usr/include/x86_64-linux-gnu/bits/types/stack_t.h"
	.file 49 "/usr/include/x86_64-linux-gnu/sys/ucontext.h"
	.file 50 "/usr/include/x86_64-linux-gnu/bits/types/wint_t.h"
	.file 51 "/usr/include/x86_64-linux-gnu/bits/types/mbstate_t.h"
	.file 52 "/usr/include/wchar.h"
	.file 53 "/usr/include/x86_64-linux-gnu/bits/types/struct_tm.h"
	.file 54 "/usr/include/x86_64-linux-gnu/bits/cpu-set.h"
	.file 55 "/usr/include/c++/11/bits/cxxabi_init_exception.h"
	.file 56 "/usr/include/c++/11/stdlib.h"
	.file 57 "/u0/usystem/software/u++-7.0.0/src/collection/uBitSet.h"
	.file 58 "/u0/usystem/software/u++-7.0.0/src/collection/uCollection.h"
	.file 59 "/u0/usystem/software/u++-7.0.0/src/collection/uSequence.h"
	.file 60 "/usr/include/string.h"
	.file 61 "/usr/include/time.h"
	.file 62 "./uCalendar.h"
	.file 63 "./uAlarm.h"
	.file 64 "/u0/usystem/software/u++-7.0.0/src/collection/uStack.h"
	.file 65 "/usr/include/x86_64-linux-gnu/bits/confname.h"
	.file 66 "/usr/include/x86_64-linux-gnu/sys/mman.h"
	.file 67 "./uDebug.h"
	.file 68 "/usr/include/unistd.h"
	.file 69 "/usr/include/errno.h"
	.file 70 "/usr/include/x86_64-linux-gnu/sys/sysinfo.h"
	.section	.data.rel.local.DW.ref.__gxx_personality_v0,"awG",@progbits,DW.ref.__gxx_personality_v0,comdat
	.align 8
	.type	DW.ref.__gxx_personality_v0, @object
	.size	DW.ref.__gxx_personality_v0, 8
DW.ref.__gxx_personality_v0:
	.quad	__gxx_personality_v0
	.hidden	__dso_handle
	.ident	"GCC: (Ubuntu 11.1.0-1ubuntu1~20.04) 11.1.0"
	.section	.note.GNU-stack,"",@progbits
	.section	.note.gnu.property,"a"
	.align 8
	.long	1f - 0f
	.long	4f - 1f
	.long	5
0:
	.string	"GNU"
1:
	.align 8
	.long	0xc0000002
	.long	3f - 2f
2:
	.long	0x3
3:
	.align 8
4:
